Archive member included because of file (symbol)

d:/programmes/atmel/studio/7.0/toolchain/avr32/avr32-gnu-toolchain/bin/../lib/gcc/avr32/4.4.7/../../../../avr32/lib/ucr3fp\libm.a(lib_a-s_cos.o)
                              Library/communication/mavlink_waypoint_handler.o (cos)
d:/programmes/atmel/studio/7.0/toolchain/avr32/avr32-gnu-toolchain/bin/../lib/gcc/avr32/4.4.7/../../../../avr32/lib/ucr3fp\libm.a(lib_a-s_floor.o)
                              Library/communication/data_logging.o (floor)
d:/programmes/atmel/studio/7.0/toolchain/avr32/avr32-gnu-toolchain/bin/../lib/gcc/avr32/4.4.7/../../../../avr32/lib/ucr3fp\libm.a(lib_a-s_sin.o)
                              Library/communication/mavlink_waypoint_handler.o (sin)
d:/programmes/atmel/studio/7.0/toolchain/avr32/avr32-gnu-toolchain/bin/../lib/gcc/avr32/4.4.7/../../../../avr32/lib/ucr3fp\libm.a(lib_a-w_asin.o)
                              Library/util/coord_conventions.o (asin)
d:/programmes/atmel/studio/7.0/toolchain/avr32/avr32-gnu-toolchain/bin/../lib/gcc/avr32/4.4.7/../../../../avr32/lib/ucr3fp\libm.a(lib_a-w_atan2.o)
                              Library/communication/mavlink_waypoint_handler.o (atan2)
d:/programmes/atmel/studio/7.0/toolchain/avr32/avr32-gnu-toolchain/bin/../lib/gcc/avr32/4.4.7/../../../../avr32/lib/ucr3fp\libm.a(lib_a-w_fmod.o)
                              Library/util/quick_trig.o (fmod)
d:/programmes/atmel/studio/7.0/toolchain/avr32/avr32-gnu-toolchain/bin/../lib/gcc/avr32/4.4.7/../../../../avr32/lib/ucr3fp\libm.a(lib_a-w_pow.o)
                              Library/hal/bmp085.o (pow)
d:/programmes/atmel/studio/7.0/toolchain/avr32/avr32-gnu-toolchain/bin/../lib/gcc/avr32/4.4.7/../../../../avr32/lib/ucr3fp\libm.a(lib_a-w_sqrt.o)
                              Library/communication/hud_telemetry.o (sqrt)
d:/programmes/atmel/studio/7.0/toolchain/avr32/avr32-gnu-toolchain/bin/../lib/gcc/avr32/4.4.7/../../../../avr32/lib/ucr3fp\libm.a(lib_a-wf_sqrt.o)
                              Library/util/matrixlib_float.o (sqrtf)
d:/programmes/atmel/studio/7.0/toolchain/avr32/avr32-gnu-toolchain/bin/../lib/gcc/avr32/4.4.7/../../../../avr32/lib/ucr3fp\libm.a(lib_a-e_asin.o)
                              d:/programmes/atmel/studio/7.0/toolchain/avr32/avr32-gnu-toolchain/bin/../lib/gcc/avr32/4.4.7/../../../../avr32/lib/ucr3fp\libm.a(lib_a-w_asin.o) (__ieee754_asin)
d:/programmes/atmel/studio/7.0/toolchain/avr32/avr32-gnu-toolchain/bin/../lib/gcc/avr32/4.4.7/../../../../avr32/lib/ucr3fp\libm.a(lib_a-e_atan2.o)
                              d:/programmes/atmel/studio/7.0/toolchain/avr32/avr32-gnu-toolchain/bin/../lib/gcc/avr32/4.4.7/../../../../avr32/lib/ucr3fp\libm.a(lib_a-w_atan2.o) (__ieee754_atan2)
d:/programmes/atmel/studio/7.0/toolchain/avr32/avr32-gnu-toolchain/bin/../lib/gcc/avr32/4.4.7/../../../../avr32/lib/ucr3fp\libm.a(lib_a-e_fmod.o)
                              d:/programmes/atmel/studio/7.0/toolchain/avr32/avr32-gnu-toolchain/bin/../lib/gcc/avr32/4.4.7/../../../../avr32/lib/ucr3fp\libm.a(lib_a-w_fmod.o) (__ieee754_fmod)
d:/programmes/atmel/studio/7.0/toolchain/avr32/avr32-gnu-toolchain/bin/../lib/gcc/avr32/4.4.7/../../../../avr32/lib/ucr3fp\libm.a(lib_a-e_pow.o)
                              d:/programmes/atmel/studio/7.0/toolchain/avr32/avr32-gnu-toolchain/bin/../lib/gcc/avr32/4.4.7/../../../../avr32/lib/ucr3fp\libm.a(lib_a-w_pow.o) (__ieee754_pow)
d:/programmes/atmel/studio/7.0/toolchain/avr32/avr32-gnu-toolchain/bin/../lib/gcc/avr32/4.4.7/../../../../avr32/lib/ucr3fp\libm.a(lib_a-e_rem_pio2.o)
                              d:/programmes/atmel/studio/7.0/toolchain/avr32/avr32-gnu-toolchain/bin/../lib/gcc/avr32/4.4.7/../../../../avr32/lib/ucr3fp\libm.a(lib_a-s_cos.o) (__ieee754_rem_pio2)
d:/programmes/atmel/studio/7.0/toolchain/avr32/avr32-gnu-toolchain/bin/../lib/gcc/avr32/4.4.7/../../../../avr32/lib/ucr3fp\libm.a(lib_a-e_sqrt.o)
                              d:/programmes/atmel/studio/7.0/toolchain/avr32/avr32-gnu-toolchain/bin/../lib/gcc/avr32/4.4.7/../../../../avr32/lib/ucr3fp\libm.a(lib_a-w_sqrt.o) (__ieee754_sqrt)
d:/programmes/atmel/studio/7.0/toolchain/avr32/avr32-gnu-toolchain/bin/../lib/gcc/avr32/4.4.7/../../../../avr32/lib/ucr3fp\libm.a(lib_a-ef_sqrt.o)
                              d:/programmes/atmel/studio/7.0/toolchain/avr32/avr32-gnu-toolchain/bin/../lib/gcc/avr32/4.4.7/../../../../avr32/lib/ucr3fp\libm.a(lib_a-wf_sqrt.o) (__ieee754_sqrtf)
d:/programmes/atmel/studio/7.0/toolchain/avr32/avr32-gnu-toolchain/bin/../lib/gcc/avr32/4.4.7/../../../../avr32/lib/ucr3fp\libm.a(lib_a-k_cos.o)
                              d:/programmes/atmel/studio/7.0/toolchain/avr32/avr32-gnu-toolchain/bin/../lib/gcc/avr32/4.4.7/../../../../avr32/lib/ucr3fp\libm.a(lib_a-s_cos.o) (__kernel_cos)
d:/programmes/atmel/studio/7.0/toolchain/avr32/avr32-gnu-toolchain/bin/../lib/gcc/avr32/4.4.7/../../../../avr32/lib/ucr3fp\libm.a(lib_a-k_rem_pio2.o)
                              d:/programmes/atmel/studio/7.0/toolchain/avr32/avr32-gnu-toolchain/bin/../lib/gcc/avr32/4.4.7/../../../../avr32/lib/ucr3fp\libm.a(lib_a-e_rem_pio2.o) (__kernel_rem_pio2)
d:/programmes/atmel/studio/7.0/toolchain/avr32/avr32-gnu-toolchain/bin/../lib/gcc/avr32/4.4.7/../../../../avr32/lib/ucr3fp\libm.a(lib_a-k_sin.o)
                              d:/programmes/atmel/studio/7.0/toolchain/avr32/avr32-gnu-toolchain/bin/../lib/gcc/avr32/4.4.7/../../../../avr32/lib/ucr3fp\libm.a(lib_a-s_cos.o) (__kernel_sin)
d:/programmes/atmel/studio/7.0/toolchain/avr32/avr32-gnu-toolchain/bin/../lib/gcc/avr32/4.4.7/../../../../avr32/lib/ucr3fp\libm.a(lib_a-s_atan.o)
                              d:/programmes/atmel/studio/7.0/toolchain/avr32/avr32-gnu-toolchain/bin/../lib/gcc/avr32/4.4.7/../../../../avr32/lib/ucr3fp\libm.a(lib_a-e_atan2.o) (atan)
d:/programmes/atmel/studio/7.0/toolchain/avr32/avr32-gnu-toolchain/bin/../lib/gcc/avr32/4.4.7/../../../../avr32/lib/ucr3fp\libm.a(lib_a-s_fabs.o)
                              d:/programmes/atmel/studio/7.0/toolchain/avr32/avr32-gnu-toolchain/bin/../lib/gcc/avr32/4.4.7/../../../../avr32/lib/ucr3fp\libm.a(lib_a-w_asin.o) (fabs)
d:/programmes/atmel/studio/7.0/toolchain/avr32/avr32-gnu-toolchain/bin/../lib/gcc/avr32/4.4.7/../../../../avr32/lib/ucr3fp\libm.a(lib_a-s_finite.o)
                              d:/programmes/atmel/studio/7.0/toolchain/avr32/avr32-gnu-toolchain/bin/../lib/gcc/avr32/4.4.7/../../../../avr32/lib/ucr3fp\libm.a(lib_a-w_pow.o) (finite)
d:/programmes/atmel/studio/7.0/toolchain/avr32/avr32-gnu-toolchain/bin/../lib/gcc/avr32/4.4.7/../../../../avr32/lib/ucr3fp\libm.a(lib_a-s_isnand.o)
                              d:/programmes/atmel/studio/7.0/toolchain/avr32/avr32-gnu-toolchain/bin/../lib/gcc/avr32/4.4.7/../../../../avr32/lib/ucr3fp\libm.a(lib_a-w_asin.o) (__isnand)
d:/programmes/atmel/studio/7.0/toolchain/avr32/avr32-gnu-toolchain/bin/../lib/gcc/avr32/4.4.7/../../../../avr32/lib/ucr3fp\libm.a(lib_a-s_lib_ver.o)
                              d:/programmes/atmel/studio/7.0/toolchain/avr32/avr32-gnu-toolchain/bin/../lib/gcc/avr32/4.4.7/../../../../avr32/lib/ucr3fp\libm.a(lib_a-w_asin.o) (__fdlib_version)
d:/programmes/atmel/studio/7.0/toolchain/avr32/avr32-gnu-toolchain/bin/../lib/gcc/avr32/4.4.7/../../../../avr32/lib/ucr3fp\libm.a(lib_a-s_matherr.o)
                              d:/programmes/atmel/studio/7.0/toolchain/avr32/avr32-gnu-toolchain/bin/../lib/gcc/avr32/4.4.7/../../../../avr32/lib/ucr3fp\libm.a(lib_a-w_asin.o) (matherr)
d:/programmes/atmel/studio/7.0/toolchain/avr32/avr32-gnu-toolchain/bin/../lib/gcc/avr32/4.4.7/../../../../avr32/lib/ucr3fp\libm.a(lib_a-s_nan.o)
                              d:/programmes/atmel/studio/7.0/toolchain/avr32/avr32-gnu-toolchain/bin/../lib/gcc/avr32/4.4.7/../../../../avr32/lib/ucr3fp\libm.a(lib_a-w_asin.o) (nan)
d:/programmes/atmel/studio/7.0/toolchain/avr32/avr32-gnu-toolchain/bin/../lib/gcc/avr32/4.4.7/../../../../avr32/lib/ucr3fp\libm.a(lib_a-s_rint.o)
                              d:/programmes/atmel/studio/7.0/toolchain/avr32/avr32-gnu-toolchain/bin/../lib/gcc/avr32/4.4.7/../../../../avr32/lib/ucr3fp\libm.a(lib_a-w_pow.o) (rint)
d:/programmes/atmel/studio/7.0/toolchain/avr32/avr32-gnu-toolchain/bin/../lib/gcc/avr32/4.4.7/../../../../avr32/lib/ucr3fp\libm.a(lib_a-s_scalbn.o)
                              d:/programmes/atmel/studio/7.0/toolchain/avr32/avr32-gnu-toolchain/bin/../lib/gcc/avr32/4.4.7/../../../../avr32/lib/ucr3fp\libm.a(lib_a-e_pow.o) (scalbn)
d:/programmes/atmel/studio/7.0/toolchain/avr32/avr32-gnu-toolchain/bin/../lib/gcc/avr32/4.4.7/../../../../avr32/lib/ucr3fp\libm.a(lib_a-sf_isnan.o)
                              d:/programmes/atmel/studio/7.0/toolchain/avr32/avr32-gnu-toolchain/bin/../lib/gcc/avr32/4.4.7/../../../../avr32/lib/ucr3fp\libm.a(lib_a-wf_sqrt.o) (isnanf)
d:/programmes/atmel/studio/7.0/toolchain/avr32/avr32-gnu-toolchain/bin/../lib/gcc/avr32/4.4.7/../../../../avr32/lib/ucr3fp\libm.a(lib_a-s_copysign.o)
                              d:/programmes/atmel/studio/7.0/toolchain/avr32/avr32-gnu-toolchain/bin/../lib/gcc/avr32/4.4.7/../../../../avr32/lib/ucr3fp\libm.a(lib_a-s_scalbn.o) (copysign)
d:/programmes/atmel/studio/7.0/toolchain/avr32/avr32-gnu-toolchain/bin/../lib/gcc/avr32/4.4.7/ucr3fp\libgcc.a(_avr32_f64_mul.o)
                              Library/communication/data_logging.o (__avr32_f64_mul)
d:/programmes/atmel/studio/7.0/toolchain/avr32/avr32-gnu-toolchain/bin/../lib/gcc/avr32/4.4.7/ucr3fp\libgcc.a(_avr32_f64_addsub.o)
                              Library/communication/data_logging.o (__avr32_f64_sub)
d:/programmes/atmel/studio/7.0/toolchain/avr32/avr32-gnu-toolchain/bin/../lib/gcc/avr32/4.4.7/ucr3fp\libgcc.a(_avr32_f64_to_s32.o)
                              Library/hal/fat_fs/diskio.o (__avr32_f64_to_u32)
d:/programmes/atmel/studio/7.0/toolchain/avr32/avr32-gnu-toolchain/bin/../lib/gcc/avr32/4.4.7/ucr3fp\libgcc.a(_avr32_f64_to_s64.o)
                              Library/communication/data_logging.o (__avr32_f64_to_s64)
d:/programmes/atmel/studio/7.0/toolchain/avr32/avr32-gnu-toolchain/bin/../lib/gcc/avr32/4.4.7/ucr3fp\libgcc.a(_avr32_s32_to_f64.o)
                              Library/hal/time_keeper.o (__avr32_u32_to_f64)
d:/programmes/atmel/studio/7.0/toolchain/avr32/avr32-gnu-toolchain/bin/../lib/gcc/avr32/4.4.7/ucr3fp\libgcc.a(_avr32_f64_cmp_eq.o)
                              d:/programmes/atmel/studio/7.0/toolchain/avr32/avr32-gnu-toolchain/bin/../lib/gcc/avr32/4.4.7/../../../../avr32/lib/ucr3fp\libm.a(lib_a-w_fmod.o) (__avr32_f64_cmp_eq)
d:/programmes/atmel/studio/7.0/toolchain/avr32/avr32-gnu-toolchain/bin/../lib/gcc/avr32/4.4.7/ucr3fp\libgcc.a(_avr32_f64_cmp_ge.o)
                              d:/programmes/atmel/studio/7.0/toolchain/avr32/avr32-gnu-toolchain/bin/../lib/gcc/avr32/4.4.7/../../../../avr32/lib/ucr3fp\libm.a(lib_a-e_pow.o) (__avr32_f64_cmp_ge)
d:/programmes/atmel/studio/7.0/toolchain/avr32/avr32-gnu-toolchain/bin/../lib/gcc/avr32/4.4.7/ucr3fp\libgcc.a(_avr32_f64_cmp_lt.o)
                              Library/communication/data_logging.o (__avr32_f64_cmp_lt)
d:/programmes/atmel/studio/7.0/toolchain/avr32/avr32-gnu-toolchain/bin/../lib/gcc/avr32/4.4.7/ucr3fp\libgcc.a(_avr32_f32_cmp_lt.o)
                              d:/programmes/atmel/studio/7.0/toolchain/avr32/avr32-gnu-toolchain/bin/../lib/gcc/avr32/4.4.7/../../../../avr32/lib/ucr3fp\libm.a(lib_a-wf_sqrt.o) (__avr32_f32_cmp_lt)
d:/programmes/atmel/studio/7.0/toolchain/avr32/avr32-gnu-toolchain/bin/../lib/gcc/avr32/4.4.7/ucr3fp\libgcc.a(_avr32_f64_div.o)
                              Library/communication/mavlink_waypoint_handler.o (__avr32_f64_div)
d:/programmes/atmel/studio/7.0/toolchain/avr32/avr32-gnu-toolchain/bin/../lib/gcc/avr32/4.4.7/ucr3fp\libgcc.a(_avr32_f32_div.o)
                              Library/communication/hud_telemetry.o (__avr32_f32_div)
d:/programmes/atmel/studio/7.0/toolchain/avr32/avr32-gnu-toolchain/bin/../lib/gcc/avr32/4.4.7/ucr3fp\libgcc.a(_avr32_f32_addsub.o)
                              d:/programmes/atmel/studio/7.0/toolchain/avr32/avr32-gnu-toolchain/bin/../lib/gcc/avr32/4.4.7/../../../../avr32/lib/ucr3fp\libm.a(lib_a-ef_sqrt.o) (__avr32_f32_sub)
d:/programmes/atmel/studio/7.0/toolchain/avr32/avr32-gnu-toolchain/bin/../lib/gcc/avr32/4.4.7/ucr3fp\libgcc.a(_avr32_f32_mul.o)
                              d:/programmes/atmel/studio/7.0/toolchain/avr32/avr32-gnu-toolchain/bin/../lib/gcc/avr32/4.4.7/../../../../avr32/lib/ucr3fp\libm.a(lib_a-ef_sqrt.o) (__avr32_f32_mul)
d:/programmes/atmel/studio/7.0/toolchain/avr32/avr32-gnu-toolchain/bin/../lib/gcc/avr32/4.4.7/ucr3fp\libgcc.a(_avr32_f32_to_f64.o)
                              Library/communication/hud_telemetry.o (__avr32_f32_to_f64)
d:/programmes/atmel/studio/7.0/toolchain/avr32/avr32-gnu-toolchain/bin/../lib/gcc/avr32/4.4.7/ucr3fp\libgcc.a(_avr32_f64_to_f32.o)
                              Library/communication/hud_telemetry.o (__avr32_f64_to_f32)
d:/programmes/atmel/studio/7.0/toolchain/avr32/avr32-gnu-toolchain/bin/../lib/gcc/avr32/4.4.7/ucr3fp\libgcc.a(_floatdidf.o)
                              Library/communication/data_logging.o (__avr32_s64_to_f64)
d:/programmes/atmel/studio/7.0/toolchain/avr32/avr32-gnu-toolchain/bin/../lib/gcc/avr32/4.4.7/ucr3fp\libgcc.a(_divdi3.o)
                              Library/util/print_util.o (__avr32_sdiv64)
d:/programmes/atmel/studio/7.0/toolchain/avr32/avr32-gnu-toolchain/bin/../lib/gcc/avr32/4.4.7/ucr3fp\libgcc.a(_moddi3.o)
                              Library/util/print_util.o (__avr32_smod64)
d:/programmes/atmel/studio/7.0/toolchain/avr32/avr32-gnu-toolchain/bin/../lib/gcc/avr32/4.4.7/ucr3fp\libgcc.a(_udivdi3.o)
                              Library/communication/data_logging.o (__avr32_udiv64)
d:/programmes/atmel/studio/7.0/toolchain/avr32/avr32-gnu-toolchain/bin/../lib/gcc/avr32/4.4.7/ucr3fp\libgcc.a(_umoddi3.o)
                              Library/communication/data_logging.o (__avr32_umod64)
d:/programmes/atmel/studio/7.0/toolchain/avr32/avr32-gnu-toolchain/bin/../lib/gcc/avr32/4.4.7/../../../../avr32/lib/ucr3fp\libc.a(lib_a-errno.o)
                              d:/programmes/atmel/studio/7.0/toolchain/avr32/avr32-gnu-toolchain/bin/../lib/gcc/avr32/4.4.7/../../../../avr32/lib/ucr3fp\libm.a(lib_a-w_asin.o) (__errno)
d:/programmes/atmel/studio/7.0/toolchain/avr32/avr32-gnu-toolchain/bin/../lib/gcc/avr32/4.4.7/../../../../avr32/lib/ucr3fp\libc.a(lib_a-impure.o)
                              d:/programmes/atmel/studio/7.0/toolchain/avr32/avr32-gnu-toolchain/bin/../lib/gcc/avr32/4.4.7/../../../../avr32/lib/ucr3fp\libc.a(lib_a-errno.o) (_impure_ptr)
d:/programmes/atmel/studio/7.0/toolchain/avr32/avr32-gnu-toolchain/bin/../lib/gcc/avr32/4.4.7/../../../../avr32/lib/ucr3fp\libc.a(lib_a-malloc.o)
                              Library/hal/fat_fs/option/syscall.o (free)
d:/programmes/atmel/studio/7.0/toolchain/avr32/avr32-gnu-toolchain/bin/../lib/gcc/avr32/4.4.7/../../../../avr32/lib/ucr3fp\libc.a(lib_a-mallocr.o)
                              d:/programmes/atmel/studio/7.0/toolchain/avr32/avr32-gnu-toolchain/bin/../lib/gcc/avr32/4.4.7/../../../../avr32/lib/ucr3fp\libc.a(lib_a-malloc.o) (_malloc_r)
d:/programmes/atmel/studio/7.0/toolchain/avr32/avr32-gnu-toolchain/bin/../lib/gcc/avr32/4.4.7/../../../../avr32/lib/ucr3fp\libc.a(lib_a-memcpy.o)
                              Library/communication/remote_telemetry.o (memcpy)
d:/programmes/atmel/studio/7.0/toolchain/avr32/avr32-gnu-toolchain/bin/../lib/gcc/avr32/4.4.7/../../../../avr32/lib/ucr3fp\libc.a(lib_a-memset.o)
                              src/asf/avr32/drivers/usbc/usbc_device.o (memset)
d:/programmes/atmel/studio/7.0/toolchain/avr32/avr32-gnu-toolchain/bin/../lib/gcc/avr32/4.4.7/../../../../avr32/lib/ucr3fp\libc.a(lib_a-mlock.o)
                              d:/programmes/atmel/studio/7.0/toolchain/avr32/avr32-gnu-toolchain/bin/../lib/gcc/avr32/4.4.7/../../../../avr32/lib/ucr3fp\libc.a(lib_a-mallocr.o) (__malloc_lock)
d:/programmes/atmel/studio/7.0/toolchain/avr32/avr32-gnu-toolchain/bin/../lib/gcc/avr32/4.4.7/../../../../avr32/lib/ucr3fp\libc.a(lib_a-rand.o)
                              Library/communication/mavlink_waypoint_handler.o (rand)
d:/programmes/atmel/studio/7.0/toolchain/avr32/avr32-gnu-toolchain/bin/../lib/gcc/avr32/4.4.7/../../../../avr32/lib/ucr3fp\libc.a(lib_a-sbrkr.o)
                              d:/programmes/atmel/studio/7.0/toolchain/avr32/avr32-gnu-toolchain/bin/../lib/gcc/avr32/4.4.7/../../../../avr32/lib/ucr3fp\libc.a(lib_a-mallocr.o) (_sbrk_r)
d:/programmes/atmel/studio/7.0/toolchain/avr32/avr32-gnu-toolchain/bin/../lib/gcc/avr32/4.4.7/../../../../avr32/lib/ucr3fp\libc.a(lib_a-snprintf.o)
                              Library/communication/data_logging.o (snprintf)
d:/programmes/atmel/studio/7.0/toolchain/avr32/avr32-gnu-toolchain/bin/../lib/gcc/avr32/4.4.7/../../../../avr32/lib/ucr3fp\libc.a(lib_a-strcpy.o)
                              Library/communication/data_logging.o (strcpy)
d:/programmes/atmel/studio/7.0/toolchain/avr32/avr32-gnu-toolchain/bin/../lib/gcc/avr32/4.4.7/../../../../avr32/lib/ucr3fp\libc.a(lib_a-strlen.o)
                              Library/communication/onboard_parameters.o (strlen)
d:/programmes/atmel/studio/7.0/toolchain/avr32/avr32-gnu-toolchain/bin/../lib/gcc/avr32/4.4.7/../../../../avr32/lib/ucr3fp\libc.a(lib_a-syscalls.o)
                              d:/programmes/atmel/studio/7.0/toolchain/avr32/avr32-gnu-toolchain/bin/../lib/gcc/avr32/4.4.7/../../../../avr32/lib/ucr3fp\libc.a(lib_a-sbrkr.o) (_sbrk)
d:/programmes/atmel/studio/7.0/toolchain/avr32/avr32-gnu-toolchain/bin/../lib/gcc/avr32/4.4.7/../../../../avr32/lib/ucr3fp\libc.a(lib_a-vfprintf.o)
                              d:/programmes/atmel/studio/7.0/toolchain/avr32/avr32-gnu-toolchain/bin/../lib/gcc/avr32/4.4.7/../../../../avr32/lib/ucr3fp\libc.a(lib_a-snprintf.o) (_vfprintf_r)
d:/programmes/atmel/studio/7.0/toolchain/avr32/avr32-gnu-toolchain/bin/../lib/gcc/avr32/4.4.7/../../../../avr32/lib/ucr3fp\libc.a(lib_a-wsetup.o)
                              d:/programmes/atmel/studio/7.0/toolchain/avr32/avr32-gnu-toolchain/bin/../lib/gcc/avr32/4.4.7/../../../../avr32/lib/ucr3fp\libc.a(lib_a-vfprintf.o) (__swsetup_r)
d:/programmes/atmel/studio/7.0/toolchain/avr32/avr32-gnu-toolchain/bin/../lib/gcc/avr32/4.4.7/../../../../avr32/lib/ucr3fp\libc.a(lib_a-dtoa.o)
                              d:/programmes/atmel/studio/7.0/toolchain/avr32/avr32-gnu-toolchain/bin/../lib/gcc/avr32/4.4.7/../../../../avr32/lib/ucr3fp\libc.a(lib_a-vfprintf.o) (_dtoa_r)
d:/programmes/atmel/studio/7.0/toolchain/avr32/avr32-gnu-toolchain/bin/../lib/gcc/avr32/4.4.7/../../../../avr32/lib/ucr3fp\libc.a(lib_a-fflush.o)
                              d:/programmes/atmel/studio/7.0/toolchain/avr32/avr32-gnu-toolchain/bin/../lib/gcc/avr32/4.4.7/../../../../avr32/lib/ucr3fp\libc.a(lib_a-vfprintf.o) (_fflush_r)
d:/programmes/atmel/studio/7.0/toolchain/avr32/avr32-gnu-toolchain/bin/../lib/gcc/avr32/4.4.7/../../../../avr32/lib/ucr3fp\libc.a(lib_a-findfp.o)
                              d:/programmes/atmel/studio/7.0/toolchain/avr32/avr32-gnu-toolchain/bin/../lib/gcc/avr32/4.4.7/../../../../avr32/lib/ucr3fp\libc.a(lib_a-vfprintf.o) (__sinit)
d:/programmes/atmel/studio/7.0/toolchain/avr32/avr32-gnu-toolchain/bin/../lib/gcc/avr32/4.4.7/../../../../avr32/lib/ucr3fp\libc.a(lib_a-freer.o)
                              d:/programmes/atmel/studio/7.0/toolchain/avr32/avr32-gnu-toolchain/bin/../lib/gcc/avr32/4.4.7/../../../../avr32/lib/ucr3fp\libc.a(lib_a-malloc.o) (_free_r)
d:/programmes/atmel/studio/7.0/toolchain/avr32/avr32-gnu-toolchain/bin/../lib/gcc/avr32/4.4.7/../../../../avr32/lib/ucr3fp\libc.a(lib_a-fvwrite.o)
                              d:/programmes/atmel/studio/7.0/toolchain/avr32/avr32-gnu-toolchain/bin/../lib/gcc/avr32/4.4.7/../../../../avr32/lib/ucr3fp\libc.a(lib_a-vfprintf.o) (__sfvwrite_r)
d:/programmes/atmel/studio/7.0/toolchain/avr32/avr32-gnu-toolchain/bin/../lib/gcc/avr32/4.4.7/../../../../avr32/lib/ucr3fp\libc.a(lib_a-fwalk.o)
                              d:/programmes/atmel/studio/7.0/toolchain/avr32/avr32-gnu-toolchain/bin/../lib/gcc/avr32/4.4.7/../../../../avr32/lib/ucr3fp\libc.a(lib_a-fflush.o) (_fwalk_reent)
d:/programmes/atmel/studio/7.0/toolchain/avr32/avr32-gnu-toolchain/bin/../lib/gcc/avr32/4.4.7/../../../../avr32/lib/ucr3fp\libc.a(lib_a-locale.o)
                              d:/programmes/atmel/studio/7.0/toolchain/avr32/avr32-gnu-toolchain/bin/../lib/gcc/avr32/4.4.7/../../../../avr32/lib/ucr3fp\libc.a(lib_a-vfprintf.o) (_localeconv_r)
d:/programmes/atmel/studio/7.0/toolchain/avr32/avr32-gnu-toolchain/bin/../lib/gcc/avr32/4.4.7/../../../../avr32/lib/ucr3fp\libc.a(lib_a-makebuf.o)
                              d:/programmes/atmel/studio/7.0/toolchain/avr32/avr32-gnu-toolchain/bin/../lib/gcc/avr32/4.4.7/../../../../avr32/lib/ucr3fp\libc.a(lib_a-wsetup.o) (__smakebuf_r)
d:/programmes/atmel/studio/7.0/toolchain/avr32/avr32-gnu-toolchain/bin/../lib/gcc/avr32/4.4.7/../../../../avr32/lib/ucr3fp\libc.a(lib_a-memchr.o)
                              d:/programmes/atmel/studio/7.0/toolchain/avr32/avr32-gnu-toolchain/bin/../lib/gcc/avr32/4.4.7/../../../../avr32/lib/ucr3fp\libc.a(lib_a-vfprintf.o) (memchr)
d:/programmes/atmel/studio/7.0/toolchain/avr32/avr32-gnu-toolchain/bin/../lib/gcc/avr32/4.4.7/../../../../avr32/lib/ucr3fp\libc.a(lib_a-memmove.o)
                              d:/programmes/atmel/studio/7.0/toolchain/avr32/avr32-gnu-toolchain/bin/../lib/gcc/avr32/4.4.7/../../../../avr32/lib/ucr3fp\libc.a(lib_a-fvwrite.o) (memmove)
d:/programmes/atmel/studio/7.0/toolchain/avr32/avr32-gnu-toolchain/bin/../lib/gcc/avr32/4.4.7/../../../../avr32/lib/ucr3fp\libc.a(lib_a-mprec.o)
                              d:/programmes/atmel/studio/7.0/toolchain/avr32/avr32-gnu-toolchain/bin/../lib/gcc/avr32/4.4.7/../../../../avr32/lib/ucr3fp\libc.a(lib_a-dtoa.o) (__hi0bits)
d:/programmes/atmel/studio/7.0/toolchain/avr32/avr32-gnu-toolchain/bin/../lib/gcc/avr32/4.4.7/../../../../avr32/lib/ucr3fp\libc.a(lib_a-reallocr.o)
                              d:/programmes/atmel/studio/7.0/toolchain/avr32/avr32-gnu-toolchain/bin/../lib/gcc/avr32/4.4.7/../../../../avr32/lib/ucr3fp\libc.a(lib_a-fvwrite.o) (_realloc_r)
d:/programmes/atmel/studio/7.0/toolchain/avr32/avr32-gnu-toolchain/bin/../lib/gcc/avr32/4.4.7/../../../../avr32/lib/ucr3fp\libc.a(lib_a-reent.o)
                              d:/programmes/atmel/studio/7.0/toolchain/avr32/avr32-gnu-toolchain/bin/../lib/gcc/avr32/4.4.7/../../../../avr32/lib/ucr3fp\libc.a(lib_a-sbrkr.o) (errno)
d:/programmes/atmel/studio/7.0/toolchain/avr32/avr32-gnu-toolchain/bin/../lib/gcc/avr32/4.4.7/../../../../avr32/lib/ucr3fp\libc.a(lib_a-s_isinfd.o)
                              d:/programmes/atmel/studio/7.0/toolchain/avr32/avr32-gnu-toolchain/bin/../lib/gcc/avr32/4.4.7/../../../../avr32/lib/ucr3fp\libc.a(lib_a-vfprintf.o) (__isinfd)
d:/programmes/atmel/studio/7.0/toolchain/avr32/avr32-gnu-toolchain/bin/../lib/gcc/avr32/4.4.7/../../../../avr32/lib/ucr3fp\libc.a(lib_a-stdio.o)
                              d:/programmes/atmel/studio/7.0/toolchain/avr32/avr32-gnu-toolchain/bin/../lib/gcc/avr32/4.4.7/../../../../avr32/lib/ucr3fp\libc.a(lib_a-findfp.o) (__sclose)
d:/programmes/atmel/studio/7.0/toolchain/avr32/avr32-gnu-toolchain/bin/../lib/gcc/avr32/4.4.7/../../../../avr32/lib/ucr3fp\libc.a(lib_a-strcmp.o)
                              d:/programmes/atmel/studio/7.0/toolchain/avr32/avr32-gnu-toolchain/bin/../lib/gcc/avr32/4.4.7/../../../../avr32/lib/ucr3fp\libc.a(lib_a-locale.o) (strcmp)
d:/programmes/atmel/studio/7.0/toolchain/avr32/avr32-gnu-toolchain/bin/../lib/gcc/avr32/4.4.7/../../../../avr32/lib/ucr3fp\libc.a(lib_a-writer.o)
                              d:/programmes/atmel/studio/7.0/toolchain/avr32/avr32-gnu-toolchain/bin/../lib/gcc/avr32/4.4.7/../../../../avr32/lib/ucr3fp\libc.a(lib_a-stdio.o) (_write_r)
d:/programmes/atmel/studio/7.0/toolchain/avr32/avr32-gnu-toolchain/bin/../lib/gcc/avr32/4.4.7/../../../../avr32/lib/ucr3fp\libc.a(lib_a-callocr.o)
                              d:/programmes/atmel/studio/7.0/toolchain/avr32/avr32-gnu-toolchain/bin/../lib/gcc/avr32/4.4.7/../../../../avr32/lib/ucr3fp\libc.a(lib_a-mprec.o) (_calloc_r)
d:/programmes/atmel/studio/7.0/toolchain/avr32/avr32-gnu-toolchain/bin/../lib/gcc/avr32/4.4.7/../../../../avr32/lib/ucr3fp\libc.a(lib_a-closer.o)
                              d:/programmes/atmel/studio/7.0/toolchain/avr32/avr32-gnu-toolchain/bin/../lib/gcc/avr32/4.4.7/../../../../avr32/lib/ucr3fp\libc.a(lib_a-stdio.o) (_close_r)
d:/programmes/atmel/studio/7.0/toolchain/avr32/avr32-gnu-toolchain/bin/../lib/gcc/avr32/4.4.7/../../../../avr32/lib/ucr3fp\libc.a(lib_a-fclose.o)
                              d:/programmes/atmel/studio/7.0/toolchain/avr32/avr32-gnu-toolchain/bin/../lib/gcc/avr32/4.4.7/../../../../avr32/lib/ucr3fp\libc.a(lib_a-findfp.o) (fclose)
d:/programmes/atmel/studio/7.0/toolchain/avr32/avr32-gnu-toolchain/bin/../lib/gcc/avr32/4.4.7/../../../../avr32/lib/ucr3fp\libc.a(lib_a-fstatr.o)
                              d:/programmes/atmel/studio/7.0/toolchain/avr32/avr32-gnu-toolchain/bin/../lib/gcc/avr32/4.4.7/../../../../avr32/lib/ucr3fp\libc.a(lib_a-makebuf.o) (_fstat_r)
d:/programmes/atmel/studio/7.0/toolchain/avr32/avr32-gnu-toolchain/bin/../lib/gcc/avr32/4.4.7/../../../../avr32/lib/ucr3fp\libc.a(lib_a-lseekr.o)
                              d:/programmes/atmel/studio/7.0/toolchain/avr32/avr32-gnu-toolchain/bin/../lib/gcc/avr32/4.4.7/../../../../avr32/lib/ucr3fp\libc.a(lib_a-stdio.o) (_lseek_r)
d:/programmes/atmel/studio/7.0/toolchain/avr32/avr32-gnu-toolchain/bin/../lib/gcc/avr32/4.4.7/../../../../avr32/lib/ucr3fp\libc.a(lib_a-readr.o)
                              d:/programmes/atmel/studio/7.0/toolchain/avr32/avr32-gnu-toolchain/bin/../lib/gcc/avr32/4.4.7/../../../../avr32/lib/ucr3fp\libc.a(lib_a-stdio.o) (_read_r)

Allocating common symbols
Common symbol       size              file

adci_buffer         0x40              Library/hal/adc_int.o
ubx_cfg_rate_message
                    0xc               Library/hal/gps_ublox.o
console_out_stream  0x18              Library/communication/console.o
deb_stream          0x4               Library/util/print_util.o
udd_ep_out_cache_buffer
                    0xc0              src/asf/avr32/drivers/usbc/usbc_device.o
b2                  0x2               Library/hal/bmp085.o
ram_buffer2         0x3e8             Library/hal/sd_spi.o
errno               0x4               d:/programmes/atmel/studio/7.0/toolchain/avr32/avr32-gnu-toolchain/bin/../lib/gcc/avr32/4.4.7/../../../../avr32/lib/ucr3fp\libc.a(lib_a-reent.o)
mb                  0x2               Library/hal/bmp085.o
ubx_solution_message
                    0x68              Library/hal/gps_ublox.o
console_in_buffer   0x103             Library/communication/console.o
continuous_mode     0x1               Library/hal/adc_int.o
ac1                 0x2               Library/hal/bmp085.o
current_transfer    0x4               Library/hal/i2c_driver_int.o
adapt_param_set     0x20c             Library/control/adaptive_parameter.o
b1                  0x2               Library/hal/bmp085.o
ac6                 0x2               Library/hal/bmp085.o
eic_options         0x6               Library/hal/ads1274.o
end_of_transfer     0x1               Library/hal/sd_spi.o
ptr_get             0x4               src/asf/common/utils/stdio/read.o
ac5                 0x2               Library/hal/bmp085.o
xbee_in_buffer      0x103             Library/hal/xbee.o
ac2                 0x2               Library/hal/bmp085.o
ubx_tim_vrfy_message
                    0x28              Library/hal/gps_ublox.o
sd_spi              0x2c              Library/hal/sd_spi.o
ptr_put             0x4               src/asf/common/utils/stdio/write.o
spek_sat            0x4               Library/hal/spektrum_satellite.o
even_odd            0x1               Library/hal/adc_int.o
ubx_vel_ned_message
                    0x48              Library/hal/gps_ublox.o
md                  0x2               Library/hal/bmp085.o
adcifa_sequencer0_conversion_opt
                    0x18              Library/hal/adc_int.o
current_slot        0x4               Library/hal/i2c_driver_int.o
ac4                 0x2               Library/hal/bmp085.o
pdca_channeltx      0x4               Library/hal/sd_spi.o
pdca_channelrx      0x4               Library/hal/sd_spi.o
ram_buffer          0x3e8             Library/hal/sd_spi.o
mc                  0x2               Library/hal/bmp085.o
channel_center      0x20              Library/hal/spektrum_satellite.o
console_in_stream   0x18              Library/communication/console.o
xbee_in_stream      0x18              Library/hal/xbee.o
udd_g_ctrlreq       0x18              src/asf/avr32/drivers/usbc/usbc_device.o
ubx_mon_rxr_message
                    0x2               Library/hal/gps_ublox.o
stdio_base          0x4               src/asf/common/utils/stdio/write.o
sleepmgr_locks      0x7               src/asf/common/services/sleepmgr/uc3/sleepmgr.o
ubx_nav_settings_message
                    0x48              Library/hal/gps_ublox.o
gcfg                0x4               Library/hal/ads1274.o
ubx_sv_info_message
                    0x190             Library/hal/gps_ublox.o
use_servos_7_8      0x1               Library/hal/pwm_servos.o
xbee_out_stream     0x18              Library/hal/xbee.o
ubx_pos_llh_message
                    0x38              Library/hal/gps_ublox.o
ubx_tim_tp_message  0x20              Library/hal/gps_ublox.o
udd_ctrl_buffer     0x40              src/asf/avr32/drivers/usbc/usbc_device.o
last_slot           0x4               Library/hal/i2c_driver_int.o
ubx_cfg_set_get_rate_message
                    0x6               Library/hal/gps_ublox.o
ubx_status_message  0x20              Library/hal/gps_ublox.o
ac3                 0x2               Library/hal/bmp085.o
blocking            0x1               Library/util/print_util.o
transfer_queue      0x118             Library/hal/i2c_driver_int.o
actual_status       0x1               Library/hal/fat_fs/diskio.o

Memory Configuration

Name             Origin             Length             Attributes
FLASH            0x80000000         0x00080000         axrl !w
CPUSRAM          0x00000004         0x0000fffc         axw !rl
USERPAGE         0x80800000         0x00000200
FACTORYPAGE      0x80800200         0x00000200
FLASHVAULT_FLASH_SIZE 0x80800400         0x00000008         r
FLASHVAULT_RAM_SIZE 0x80800408         0x00000008         r
*default*        0x00000000         0xffffffff

Linker script and memory map

                0x00001000                _stack_size = 0x1000
LOAD Library/communication/console.o
LOAD Library/communication/data_logging.o
LOAD Library/communication/data_logging_telemetry.o
LOAD Library/communication/hud_telemetry.o
LOAD Library/communication/mavlink_communication.o
LOAD Library/communication/mavlink_message_handler.o
LOAD Library/communication/mavlink_waypoint_handler.o
LOAD Library/communication/remote.o
LOAD Library/communication/remote_telemetry.o
LOAD Library/communication/state.o
LOAD Library/communication/state_machine.o
LOAD Library/communication/state_telemetry.o
LOAD Library/control/adaptive_parameter.o
LOAD Library/control/altitude_controller.o
LOAD Library/control/attitude_controller.o
LOAD Library/control/attitude_controller_p2.o
LOAD Library/control/attitude_error_estimator.o
LOAD Library/control/joystick_parsing.o
LOAD Library/control/joystick_parsing_telemetry.o
LOAD Library/control/pid_controller.o
LOAD Library/control/servos_mix_quadcopter_cross.o
LOAD Library/control/servos_mix_quadcopter_diag.o
LOAD Library/control/stabilisation_copter.o
LOAD Library/control/stabilisation_telemetry.o
LOAD Library/control/vector_field_waypoint.o
LOAD Library/control/velocity_controller_copter.o
LOAD Library/hal/analog_monitor_telemetry.o
LOAD Library/hal/analog_monitor.o
LOAD Library/hal/bmp085_telemetry.o
LOAD Library/hal/fat_fs/diskio.o
LOAD Library/hal/fat_fs/ff.o
LOAD Library/hal/fat_fs/option/ccsbcs.o
LOAD Library/hal/fat_fs/option/syscall.o
LOAD Library/hal/fat_fs/option/unicode.o
LOAD Library/hal/gps_ublox.o
LOAD Library/hal/gps_ublox_telemetry.o
LOAD Library/hal/hmc5883l.o
LOAD Library/hal/i2c_driver_int.o
LOAD Library/hal/lsm330dlc.o
LOAD Library/hal/piezo_speaker.o
LOAD Library/hal/pwm_servos.o
LOAD Library/hal/sd_spi.o
LOAD Library/hal/servos.o
LOAD Library/hal/servos_telemetry.o
LOAD Library/hal/sonar_i2cxl.o
LOAD Library/hal/sonar_telemetry.o
LOAD Library/hal/spektrum_satellite.o
LOAD Library/hal/time_keeper.o
LOAD Library/hal/usb_int.o
LOAD Library/hal/xbee.o
LOAD Library/runtime/scheduler_telemetry.o
LOAD Library/sensing/ahrs.o
LOAD Library/sensing/ahrs_telemetry.o
LOAD Library/sensing/altitude_estimation.o
LOAD Library/sensing/imu_telemetry.o
LOAD Library/sensing/position_estimation.o
LOAD Library/sensing/position_estimation_telemetry.o
LOAD Library/sensing/qfilter.o
LOAD Library/sensing/simulation_telemetry.o
LOAD Library/util/linear_algebra.o
LOAD Library/util/matrixlib_float.o
LOAD Library/util/quick_trig.o
LOAD src/central_data.o
LOAD src/mavlink_telemetry.o
LOAD src/tasks.o
LOAD Library/communication/mavlink_stream.o
LOAD Library/communication/onboard_parameters.o
LOAD Library/control/navigation.o
LOAD Library/control/stabilisation.o
LOAD Library/hal/adc_int.o
LOAD Library/hal/ads1274.o
LOAD Library/hal/bmp085.o
LOAD Library/hal/dac_dma.o
LOAD Library/hal/led.o
LOAD Library/hal/spi_buffered.o
LOAD Library/hal/uart_int.o
LOAD Library/runtime/scheduler.o
LOAD Library/sensing/imu.o
LOAD Library/sensing/simulation.o
LOAD Library/util/buffer.o
LOAD Library/util/coord_conventions.o
LOAD Library/util/generator.o
LOAD Library/util/print_util.o
LOAD Library/util/sinus.o
LOAD src/asf/avr32/drivers/adcifa/adcifa.o
LOAD src/asf/avr32/drivers/ast/ast.o
LOAD src/asf/avr32/drivers/dacifb/dacifb.o
LOAD src/asf/avr32/drivers/eic/eic.o
LOAD src/asf/avr32/drivers/flashc/flashc.o
LOAD src/asf/avr32/drivers/gpio/gpio.o
LOAD src/asf/avr32/drivers/intc/exception.o
LOAD src/asf/avr32/drivers/intc/intc.o
LOAD src/asf/avr32/drivers/pdca/pdca.o
LOAD src/asf/avr32/drivers/pevc/pevc.o
LOAD src/asf/avr32/drivers/pm/pm_uc3c.o
LOAD src/asf/avr32/drivers/pm/power_clocks_lib.o
LOAD src/asf/avr32/drivers/pwm/pwm4.o
LOAD src/asf/avr32/drivers/scif/scif_uc3c.o
LOAD src/asf/avr32/drivers/spi/spi.o
LOAD src/asf/avr32/drivers/tc/tc.o
LOAD src/asf/avr32/drivers/twim/twim.o
LOAD src/asf/avr32/drivers/usart/usart.o
LOAD src/asf/avr32/drivers/usbc/usbc_device.o
LOAD src/asf/avr32/services/delay/delay.o
LOAD src/asf/avr32/utils/startup/startup_uc3.o
LOAD src/asf/avr32/utils/startup/trampoline_uc3.o
LOAD src/asf/common/boards/user_board/init.o
LOAD src/asf/common/services/clock/uc3c/osc.o
LOAD src/asf/common/services/clock/uc3c/pll.o
LOAD src/asf/common/services/clock/uc3c/sysclk.o
LOAD src/asf/common/services/sleepmgr/uc3/sleepmgr.o
LOAD src/asf/common/services/spi/uc3_spi/spi_master.o
LOAD src/asf/common/services/usb/class/cdc/device/udi_cdc.o
LOAD src/asf/common/services/usb/class/cdc/device/udi_cdc_desc.o
LOAD src/asf/common/services/usb/udc/udc.o
LOAD src/asf/common/utils/stdio/read.o
LOAD src/asf/common/utils/stdio/stdio_usb/stdio_usb.o
LOAD src/asf/common/utils/stdio/write.o
LOAD src/boardsupport.o
LOAD src/main.o
START GROUP
END GROUP
LOAD d:/programmes/atmel/studio/7.0/toolchain/avr32/avr32-gnu-toolchain/bin/../lib/gcc/avr32/4.4.7/ucr3fp\libstdc++.a
LOAD d:/programmes/atmel/studio/7.0/toolchain/avr32/avr32-gnu-toolchain/bin/../lib/gcc/avr32/4.4.7/../../../../avr32/lib/ucr3fp\libm.a
LOAD d:/programmes/atmel/studio/7.0/toolchain/avr32/avr32-gnu-toolchain/bin/../lib/gcc/avr32/4.4.7/ucr3fp\libgcc.a
LOAD d:/programmes/atmel/studio/7.0/toolchain/avr32/avr32-gnu-toolchain/bin/../lib/gcc/avr32/4.4.7/../../../../avr32/lib/ucr3fp\libc.a
LOAD d:/programmes/atmel/studio/7.0/toolchain/avr32/avr32-gnu-toolchain/bin/../lib/gcc/avr32/4.4.7/ucr3fp\libgcc.a
                0x80000000                PROVIDE (__executable_start, 0x80000000)
                0x80000000                . = 0x80000000

.interp
 *(.interp)

.reset          0x80000000     0x2010
 *(.reset)
 .reset         0x80000000        0x8 src/asf/avr32/utils/startup/startup_uc3.o
                0x80000000                _start
 .reset         0x80000008     0x2008 src/asf/avr32/utils/startup/trampoline_uc3.o
                0x80000008                _trampoline

.hash
 *(.hash)

.dynsym
 *(.dynsym)

.dynstr
 *(.dynstr)

.gnu.version
 *(.gnu.version)

.gnu.version_d
 *(.gnu.version_d)

.gnu.version_r
 *(.gnu.version_r)

.rel.init
 *(.rel.init)

.rela.init
 *(.rela.init)

.rel.text
 *(.rel.text .rel.text.* .rel.gnu.linkonce.t.*)

.rela.text
 *(.rela.text .rela.text.* .rela.gnu.linkonce.t.*)

.rel.fini
 *(.rel.fini)

.rela.fini
 *(.rela.fini)

.rel.rodata
 *(.rel.rodata .rel.rodata.* .rel.gnu.linkonce.r.*)

.rela.rodata
 *(.rela.rodata .rela.rodata.* .rela.gnu.linkonce.r.*)

.rel.data.rel.ro
 *(.rel.data.rel.ro*)

.rela.data.rel.ro
 *(.rel.data.rel.ro*)

.rel.data
 *(.rel.data .rel.data.* .rel.gnu.linkonce.d.*)

.rela.data
 *(.rela.data .rela.data.* .rela.gnu.linkonce.d.*)

.rel.tdata
 *(.rel.tdata .rel.tdata.* .rel.gnu.linkonce.td.*)

.rela.tdata
 *(.rela.tdata .rela.tdata.* .rela.gnu.linkonce.td.*)

.rel.tbss
 *(.rel.tbss .rel.tbss.* .rel.gnu.linkonce.tb.*)

.rela.tbss
 *(.rela.tbss .rela.tbss.* .rela.gnu.linkonce.tb.*)

.rel.ctors
 *(.rel.ctors)

.rela.ctors
 *(.rela.ctors)

.rel.dtors
 *(.rel.dtors)

.rela.dtors
 *(.rela.dtors)

.rel.got
 *(.rel.got)

.rela.got       0x80002010        0x0
 *(.rela.got)
 .rela.got      0x80002010        0x0 Library/communication/console.o

.rel.bss
 *(.rel.bss .rel.bss.* .rel.gnu.linkonce.b.*)

.rela.bss
 *(.rela.bss .rela.bss.* .rela.gnu.linkonce.b.*)

.rel.plt
 *(.rel.plt)

.rela.plt
 *(.rela.plt)

.init
 *(.init)

.plt
 *(.plt)

.text           0x80002010    0x3e274
 *(.text .stub .text.* .gnu.linkonce.t.*)
 .text          0x80002010      0x13c Library/communication/console.o
                0x80002010                console_get_in_stream
                0x8000202c                console_get_out_stream
                0x80002048                console_init
 .text          0x8000214c     0x19cc Library/communication/data_logging.o
                0x80002390                data_logging_add_parameter_double
                0x8000240c                data_logging_add_parameter_float
                0x80002488                data_logging_add_parameter_int64
                0x80002504                data_logging_add_parameter_uint64
                0x80002580                data_logging_add_parameter_int32
                0x800025fc                data_logging_add_parameter_uint32
                0x80002678                data_logging_add_parameter_int16
                0x800026f4                data_logging_add_parameter_uint16
                0x80002770                data_logging_add_parameter_int8
                0x800027ec                data_logging_add_parameter_uint8
                0x80002868                data_logging_init
                0x800029c0                data_logging_create_new_log_file
                0x80002c64                data_logging_update
 .text          0x80003b18       0xa4 Library/communication/data_logging_telemetry.o
                0x80003b18                data_logging_telemetry_init
 .text          0x80003bbc      0x318 Library/communication/hud_telemetry.o
                0x80003bbc                hud_telemetry_send_message
                0x80003ea8                hud_telemetry_init
 .text          0x80003ed4      0x3fc Library/communication/mavlink_communication.o
                0x80003ed4                mavlink_communication_send_message
                0x80003f0c                mavlink_communication_add_msg_send
                0x80003fa0                mavlink_communication_suspend_downstream
                0x80003fe8                mavlink_communication_update
                0x80004048                mavlink_communication_init
 .text          0x800042d0      0x8b4 Library/communication/mavlink_message_handler.o
                0x800042d0                mavlink_message_handler_add_cmd_callback
                0x80004334                mavlink_message_handler_add_msg_callback
                0x8000439c                mavlink_message_handler_cmd_default_dbg
                0x800044e8                mavlink_message_handler_msg_default_dbg
                0x80004588                mavlink_message_handler_receive
                0x80004ae4                mavlink_message_handler_init
 .text          0x80004b84     0x37b8 Library/communication/mavlink_waypoint_handler.o
                0x80004ce4                waypoint_handler_init_homing_waypoint
                0x80004d2c                waypoint_handler_control_time_out_waypoint_msg
                0x80004e14                waypoint_handler_init_waypoint_list
                0x80004f74                waypoint_handler_set_waypoint_from_frame
                0x8000554c                waypoint_handler_nav_plan_init
                0x80005750                waypoint_handler_init
 .text          0x8000833c      0xa34 Library/communication/remote.o
                0x8000833c                remote_calibrate
                0x8000835e                remote_get_throttle
                0x8000836c                remote_get_roll
                0x8000837a                remote_get_pitch
                0x80008388                remote_get_yaw
                0x80008396                remote_mode_init
                0x800083e4                remote_init
                0x800084cc                remote_mode_get
                0x800084da                remote_get_rate_command
                0x80008518                remote_get_thrust_command
                0x80008538                remote_get_velocity_command
                0x80008590                remote_get_attitude_command_integrate_yaw
                0x80008684                remote_get_attitude_command
                0x80008738                remote_update
                0x80008a28                remote_get_velocity_vector_from_remote
                0x80008a98                remote_get_command_from_remote
                0x80008af0                remote_mode_update
                0x80008d4c                remote_check
 .text          0x80008d70      0x644 Library/communication/remote_telemetry.o
                0x80008ddc                remote_telemetry_init
                0x80008e2c                remote_telemetry_send_raw
                0x800090dc                remote_telemetry_send_scaled
 .text          0x800093b4       0xa4 Library/communication/state.o
                0x800093b4                state_switch_to_active_mode
                0x800093e8                state_init
 .text          0x80009458      0x214 Library/communication/state_machine.o
                0x80009458                state_machine_init
                0x8000948c                state_machine_update
 .text          0x8000966c      0x81c Library/communication/state_telemetry.o
                0x8000966c                state_telemetry_send_status
                0x800098e0                state_telemetry_init
                0x80009bac                state_telemetry_send_heartbeat
 .text          0x80009e88      0x244 Library/control/adaptive_parameter.o
                0x80009e88                adaptive_parameter_get_param_set
                0x80009ea4                adaptive_parameter_init
                0x80009ec4                adaptive_parameter_add
                0x80009f6c                adaptive_parameter_update
                0x8000a038                adaptive_parameter_update_all
 .text          0x8000a0cc       0x54 Library/control/altitude_controller.o
                0x8000a0cc                altitude_controller_init
                0x8000a0e4                altitude_controller_update
 .text          0x8000a120      0x248 Library/control/attitude_controller.o
                0x8000a120                attitude_controller_init
                0x8000a1c4                attitude_controller_update
 .text          0x8000a368       0xe8 Library/control/attitude_controller_p2.o
                0x8000a368                attitude_controller_p2_update
                0x8000a40c                attitude_controller_p2_init
 .text          0x8000a450      0x2dc Library/control/attitude_error_estimator.o
                0x8000a450                attitude_error_estimator_init
                0x8000a470                attitude_error_estimator_set_quat_ref
                0x8000a48e                attitude_error_estimator_set_quat_ref_from_rpy
                0x8000a4ec                attitude_error_estimator_set_quat_ref_from_aero
                0x8000a538                attitude_error_estimator_update
 .text          0x8000a72c      0x56c Library/control/joystick_parsing.o
                0x8000a72c                joystick_parsing_button
                0x8000a748                joystick_parsing_get_throttle
                0x8000a754                joystick_parsing_get_roll
                0x8000a760                joystick_parsing_get_pitch
                0x8000a76c                joystick_parsing_get_yaw
                0x8000a778                joystick_parsing_get_velocity_vector_from_joystick
                0x8000a840                joystick_parsing_get_attitude_command_from_joystick
                0x8000a8f0                joystick_parsing_get_rate_command
                0x8000a930                joystick_parsing_get_thrust_command
                0x8000a950                joystick_parsing_get_velocity_command
                0x8000a9a8                joystick_parsing_get_attitude_command_integrate_yaw
                0x8000aa9c                joystick_parsing_get_attitude_command
                0x8000ab50                joystick_parsing_init
                0x8000ab88                joystick_parsing_button_1
                0x8000ac24                joystick_parsing_button_mask
 .text          0x8000ac98      0x49c Library/control/joystick_parsing_telemetry.o
                0x8000ac98                joystick_parsing_telemetry_send_manual_ctrl_msg
                0x8000b010                joystick_parsing_telemetry_init
                0x8000b058                joystick_parsing_telemetry_parse_msg
 .text          0x8000b134      0x2f0 Library/control/pid_controller.o
                0x8000b134                pid_controller_reset_integrator
                0x8000b142                pid_controller_update_dt
                0x8000b234                pid_controller_init_pass_through
                0x8000b288                pid_controller_init
                0x8000b2f0                pid_controller_update
 .text          0x8000b424      0x184 Library/control/servos_mix_quadcopter_cross.o
                0x8000b424                servo_mix_quadcotper_cross_init
                0x8000b45c                servos_mix_quadcopter_cross_update
 .text          0x8000b5a8      0x18c Library/control/servos_mix_quadcopter_diag.o
                0x8000b5a8                servo_mix_quadcotper_diag_init
                0x8000b5e0                servos_mix_quadcopter_diag_update
 .text          0x8000b734      0xa68 Library/control/stabilisation_copter.o
                0x8000b734                stabilisation_copter_mix_to_servos_cross_quad
                0x8000b870                stabilisation_copter_mix_to_servos_diag_quad
                0x8000b9c0                stabilisation_copter_init
                0x8000ba54                stabilisation_copter_position_hold
                0x8000bc00                stabilisation_copter_cascade_stabilise
 .text          0x8000c19c      0x908 Library/control/stabilisation_telemetry.o
                0x8000c19c                stabilisation_telemetry_send_rpy_rates_error
                0x8000c3d4                stabilisation_telemetry_send_rpy_speed_thrust_setpoint
                0x8000c610                stabilisation_send_command
                0x8000c86c                stabilisation_telemetry_send_rpy_thrust_setpoint
 .text          0x8000caa4      0x5d8 Library/control/vector_field_waypoint.o
                0x8000caa4                vector_field_waypoint_init
                0x8000cab4                vector_field_waypoint_update
 .text          0x8000d07c      0x2cc Library/control/velocity_controller_copter.o
                0x8000d07c                velocity_controller_copter_init
                0x8000d0e4                velocity_controller_copter_update
 .text          0x8000d348      0x200 Library/hal/analog_monitor_telemetry.o
                0x8000d348                analog_monitor_telemetry_send_sonar
 .text          0x8000d548      0x64c Library/hal/analog_monitor.o
                0x8000d548                analog_compute_avg
                0x8000d5ec                analog_monitor_init
                0x8000d97c                trigger_analog_monitor
                0x8000d9a4                analog_monitor_update
 .text          0x8000db94      0x410 Library/hal/bmp085_telemetry.o
                0x8000db94                bmp085_telemetry_send_pressure
 .text          0x8000dfa4      0x290 Library/hal/fat_fs/diskio.o
                0x8000dfa4                get_fattime
                0x8000e08c                disk_ioctl
                0x8000e114                disk_write
                0x8000e16c                disk_read
                0x8000e1b8                disk_status
                0x8000e1fc                disk_initialize
 .text          0x8000e234     0x60f8 Library/hal/fat_fs/ff.o
                0x8000e234                clust2sect
                0x8000e6e4                f_closedir
                0x8000f134                f_mount
                0x8000f220                f_sync
                0x8000f3b4                f_close
                0x8000f414                get_fat
                0x8000f76c                f_getfree
                0x8000f930                f_read
                0x8000fc30                f_gets
                0x8000fcb0                put_fat
                0x800111cc                f_readdir
                0x800115a4                f_lseek
                0x80011790                f_write
                0x80011ac0                f_puts
                0x80011b78                f_putc
                0x80011bcc                f_printf
                0x80012324                f_truncate
                0x800125bc                f_opendir
                0x800126a4                f_utime
                0x8001274c                f_chmod
                0x800127f4                f_unlink
                0x800134c4                f_rename
                0x800137a4                f_mkdir
                0x80013b20                f_open
                0x80013e40                f_stat
 .text          0x8001432c      0x588 Library/hal/fat_fs/option/ccsbcs.o
                0x8001432c                ff_convert
                0x800143a4                ff_wtoupper
 .text          0x800148b4       0x38 Library/hal/fat_fs/option/syscall.o
                0x800148b4                ff_memfree
                0x800148d0                ff_memalloc
 .text          0x800148ec        0x0 Library/hal/fat_fs/option/unicode.o
 .text          0x800148ec     0x252c Library/hal/gps_ublox.o
                0x80014970                gps_ublox_init
                0x80014e18                gps_ublox_configure_gps
                0x80014f34                gps_ublox_update
 .text          0x80016e18      0x570 Library/hal/gps_ublox_telemetry.o
                0x80016e18                gps_ublox_telemetry_send_raw
 .text          0x80017388       0xd4 Library/hal/hmc5883l.o
                0x80017388                hmc5883l_update
                0x800173f0                hmc5883l_init_slow
 .text          0x8001745c      0x2fc Library/hal/i2c_driver_int.o
                0x8001753c                i2c_driver_trigger_request
                0x80017600                i2c_driver_reset
                0x8001766a                i2c_driver_init
 .text          0x80017758      0x3c8 Library/hal/lsm330dlc.o
                0x80017758                lsm330dlc_init
                0x8001787c                lsm330dlc_acc_update
                0x800179b4                lsm330dlc_gyro_update
 .text          0x80017b20      0x63c Library/hal/piezo_speaker.o
                0x80017b20                piezo_speaker_init_binary
                0x80017b68                piezo_speaker_init
                0x80017bd4                piezo_speaker_beep
                0x80017ca4                piezo_speaker_mario_melody
                0x80017d78                piezo_speaker_star_wars
                0x80017fac                piezo_speaker_critical_error_melody
                0x80017ff4                piezo_speaker_startup_bb
                0x80018044                piezo_speaker_quick_startup
                0x80018084                piezo_speaker_startup_melody
 .text          0x8001815c      0x378 Library/hal/pwm_servos.o
                0x8001815c                write_channels
                0x800181a6                pwm_servos_write_to_hardware
                0x80018338                pwm_servos_calibrate_esc
                0x800183b4                pwm_servos_init
                0x800184cc                servo_timer_freq
                0x800184d0                servo_center_pulse_us
                0x800184d2                servo_magnitude
 .text          0x800184d4     0x30ac Library/hal/sd_spi.o
                0x800184d4                sd_spi_get_sector_count
                0x800184fc                sd_spi_get_sector_size
                0x8001850c                sd_spi_get_block_size
                0x80018580                sd_spi_get_capacity
                0x80018a40                sd_spi_reset_card
                0x80018b20                sd_spi_wait_not_busy
                0x80018bc0                sd_spi_write_given_sector_from_ram
                0x80018e64                sd_mmc_spi_read_open_PDCA
                0x80018f98                sd_spi_read_sector_to_ram_pcda
                0x80019124                sd_spi_status
                0x80019484                sd_spi_read_given_sector_to_ram
                0x8001962c                sd_mmc_spi_read_sector_to_ram
                0x800197ac                sd_spi_write_sector_from_ram
                0x800199b0                is_sd_spi_write_pwd_locked
                0x80019d44                sd_spi_init
                0x8001ab30                sd_spi_mem_check
                0x8001aed4                sd_spi_test
                0x8001b17c                dummy_data
 .text          0x8001b580       0xf4 Library/hal/servos.o
                0x8001b580                servos_set_value
                0x8001b5dc                servos_set_value_failsafe
                0x8001b608                servos_init
 .text          0x8001b674      0x2b8 Library/hal/servos_telemetry.o
                0x8001b674                servos_telemetry_mavlink_send
 .text          0x8001b92c      0x164 Library/hal/sonar_i2cxl.o
                0x8001b92c                sonar_i2cxl_init
                0x8001b9a0                sonar_i2cxl_get_last_measure
                0x8001ba30                sonar_i2cxl_send_range_command
                0x8001ba60                sonar_i2cxl_update
                0x8001ba8c                SONAR_I2CXL_DEFAULT_ADDRESS
                0x8001ba8d                SONAR_I2CXL_RANGE_COMMAND
                0x8001ba8e                SONAR_I2CXL_CHANGE_ADDRESS_COMMAND_1
                0x8001ba8f                SONAR_I2CXL_CHANGE_ADDRESS_COMMAND_2
 .text          0x8001ba90      0x414 Library/hal/sonar_telemetry.o
                0x8001ba90                sonar_telemetry_send
 .text          0x8001bea4      0x5c8 Library/hal/spektrum_satellite.o
                0x8001bea4                spektrum_satellite_get_channel
                0x8001bec8                spektrum_satellite_get_neutral
                0x8001c174                spektrum_satellite_switch_off
                0x8001c1a0                spektrum_satellite_switch_on
                0x8001c1cc                spektrum_satellite_bind
                0x8001c348                spektrum_satellite_init
 .text          0x8001c46c      0x15c Library/hal/time_keeper.o
                0x8001c46c                time_keeper_ticks_to_seconds
                0x8001c4a8                time_keeper_get_time_ticks
                0x8001c4c8                time_keeper_get_micros
                0x8001c4e4                time_keeper_delay_until
                0x8001c508                time_keeper_delay_micros
                0x8001c538                time_keeper_get_millis
                0x8001c564                time_keeper_get_time
                0x8001c594                time_keeper_init
 .text          0x8001c5c8       0xec Library/hal/usb_int.o
                0x8001c5c8                usb_int_set_usb_conf
                0x8001c5f0                usb_int_get_usb_handle
                0x8001c60c                usb_int_register_write_stream
                0x8001c634                usb_int_register_read_stream
                0x8001c640                usb_int_send_byte
                0x8001c68c                usb_int_init
 .text          0x8001c6b4       0xb8 Library/hal/xbee.o
                0x8001c6b4                xbee_get_in_stream
                0x8001c6d0                xbee_get_out_stream
                0x8001c6ec                xbee_init
 .text          0x8001c76c      0xb28 Library/runtime/scheduler_telemetry.o
                0x8001c76c                scheduler_telemetry_send_rt_stats
 .text          0x8001d294       0x62 Library/sensing/ahrs.o
                0x8001d294                ahrs_init
 *fill*         0x8001d2f6        0x2 d703d703
 .text          0x8001d2f8      0x580 Library/sensing/ahrs_telemetry.o
                0x8001d2f8                ahrs_telemetry_send_attitude_quaternion
                0x8001d5c0                ahrs_telemetry_send_attitude
 .text          0x8001d878       0x30 Library/sensing/altitude_estimation.o
                0x8001d878                altitude_estimation_init
                0x8001d88c                altitude_estimation_update
 .text          0x8001d8a8      0x7b8 Library/sensing/imu_telemetry.o
                0x8001d8a8                imu_telemetry_send_raw
                0x8001db78                imu_telemetry_init
                0x8001dd80                imu_telemetry_send_scaled
 .text          0x8001e060      0xb44 Library/sensing/position_estimation.o
                0x8001e060                position_estimation_reset_home_altitude
                0x8001e1d4                position_estimation_init
                0x8001e744                position_estimation_update
 .text          0x8001eba4      0x7f4 Library/sensing/position_estimation_telemetry.o
                0x8001eba4                position_estimation_telemetry_init
                0x8001eda4                position_estimation_telemetry_send_position
                0x8001f038                position_estimation_telemetry_send_global_position
 .text          0x8001f398      0xb28 Library/sensing/qfilter.o
                0x8001f398                qfilter_init
                0x8001f3d8                qfilter_update
 .text          0x8001fec0      0xc9c Library/sensing/simulation_telemetry.o
                0x8001fec0                simulation_telemetry_send_state
                0x80020398                simulation_telemetry_init
                0x8002059c                simulation_telemetry_send_quaternions
 .text          0x80020b5c      0x920 Library/util/linear_algebra.o
                0x80020b5c                inv4
                0x8002128c                inv3
                0x800213ec                inv2
 .text          0x8002147c      0x470 Library/util/matrixlib_float.o
                0x8002147c                matf_zeros
                0x800214a8                matf_diag
                0x800214e2                matf_copy
                0x80021504                matf_cross
                0x80021558                matf_copy_part
                0x800215b6                matf_sum
                0x800215dc                matf_add
                0x8002160c                matf_multiply_factor
                0x80021632                matf_sub
                0x80021662                matf_tr
                0x800216a2                matf_multiply
                0x8002178c                matf_multiply_Bt
                0x80021868                matf_norm
                0x800218a0                matf_std
 .text          0x800218ec      0x7ec Library/util/quick_trig.o
                0x800218ec                quick_trig_atan
                0x80021a24                quick_trig_acos
                0x80021b04                quick_trig_asin
                0x80021b2c                quick_trig_tan
                0x80021c34                quick_trig_sin
                0x80021d60                quick_trig_cos
                0x80021d88                acos_x_min
                0x80021d8c                acos_x_max
                0x80021d90                acos_x_step
                0x80021d94                acos_y
                0x80021e5c                sin_x_min
                0x80021e60                sin_x_max
                0x80021e64                sin_x_step
                0x80021e68                sin_y
                0x80021f30                tan_x_min
                0x80021f34                tan_x_max
                0x80021f38                tan_x_step
                0x80021f3c                tan_y
                0x80022004                atan_x_min
                0x80022008                atan_x_max
                0x8002200c                atan_x_step
                0x80022010                atan_y
 .text          0x800220d8      0x46c src/central_data.o
                0x800220d8                central_data_get_pointer_to_struct
                0x800220f4                central_data_init
 .text          0x80022544      0xa54 src/mavlink_telemetry.o
                0x80022544                mavlink_telemetry_add_data_logging_parameters
                0x8002262c                mavlink_telemetry_add_onboard_parameters
                0x80022b40                mavlink_telemetry_init_communication_module
                0x80022ba8                mavlink_telemetry_init
 .text          0x80022f98      0x564 src/tasks.o
                0x80022f98                tasks_get_main_taskset
                0x80022fc4                tasks_create_tasks
                0x80023194                tasks_led_toggle
                0x800231b4                tasks_run_sonar_update
                0x800231f8                tasks_run_barometer_update
                0x8002323c                tasks_run_gps_update
                0x80023280                tasks_run_imu_update
                0x80023320                tasks_run_stabilisation
 .text          0x800234fc      0x508 Library/communication/mavlink_stream.o
                0x800234fc                mavlink_stream_init
                0x80023520                mavlink_stream_flush
                0x80023536                mavlink_stream_receive
                0x8002389c                mavlink_stream_send
 .text          0x80023a04      0xaf4 Library/communication/onboard_parameters.o
                0x80023a3e                onboard_parameters_read_parameters_from_flashc
                0x80023b14                onboard_parameters_write_parameters_to_flashc
                0x80023bf0                onboard_parameters_preflight_storage
                0x80023c64                onboard_parameters_add_parameter_float
                0x80023d0c                onboard_parameters_add_parameter_int32
                0x80023db4                onboard_parameters_add_parameter_uint32
                0x80023e44                onboard_parameters_init
 .text          0x800244f8     0x1c50 Library/control/navigation.o
                0x80024594                navigation_waypoint_hold_init
                0x80024d34                navigation_init
                0x800255bc                navigation_update
 .text          0x80026148       0xb0 Library/control/stabilisation.o
                0x80026148                stabilisation_run
                0x800261b4                stabilisation_init
 .text          0x800261f8      0x484 Library/hal/adc_int.o
                0x800261f8                adc_int_clear_sequencer
                0x80026224                adc_int_sequencer_add
                0x8002629c                adc_int_sampling_complete
                0x800262c8                adc_int_get_sample
                0x800262ec                adc_int_get_buffer
                0x80026308                adc_int_get_sampling_status
                0x80026324                adc_int_get_period
                0x80026340                adc_int_stop_sampling
                0x80026368                adc_int_start_sampling
                0x8002641c                adc_int_init
 .text          0x8002667c      0x388 Library/hal/ads1274.o
                0x8002667c                get_interrupt_counter
                0x80026698                ads1274_set_DAC_generator_function
                0x800266b4                get_sample
                0x800266dc                get_sampling_status
                0x800266fc                ads1274_ADC_start_oneshot
                0x8002671c                eic_nmi_handler
                0x80026754                ads1274_ADC_switch_clock
                0x800267ac                ads1274_init_DAC
                0x800268f4                process_data
 .text          0x80026a04      0x830 Library/hal/bmp085.o
                0x80026a04                bmp085_reset_origin_altitude
                0x80026a20                bmp085_update
                0x80026e58                bmp085_init_slow
                0x80027204                bmp085_init
 .text          0x80027234      0x300 Library/hal/dac_dma.o
                0x80027234                DAC_pause
                0x8002723e                DAC_resume
                0x80027248                DAC_is_finished
                0x80027252                dac_dma_set_value
                0x80027270                dac_dma_play
                0x80027330                dac_dma_init
                0x80027410                init_gclk
                0x80027440                init_pevc
                0x80027484                dac_dma_load_buffer
 .text          0x80027534      0x34c Library/hal/led.o
                0x80027534                LED_Read_Display
                0x80027550                LED_Display
                0x800275fc                LED_Read_Display_Mask
                0x8002761c                LED_Test
                0x80027640                LED_Get_Intensity
                0x8002764a                LED_Set_Intensity
                0x80027654                LED_Read_Display_Field
                0x80027680                LED_Toggle
                0x800276e0                LED_Off
                0x80027740                LED_On
                0x800277a4                LED_Display_Mask
                0x80027828                LED_Display_Field
 .text          0x80027880      0x71c Library/hal/spi_buffered.o
                0x80027880                spi_buffered_get_spi_in_buffer
                0x800278a4                spi_buffered_set_callback
                0x800278c8                spi_buffered_pause
                0x800278f0                spi_buffered_activate_receive
                0x80027918                spi_buffered_deactivate_receive
                0x80027940                spi_buffered_clear_read_buffer
                0x80027968                spi_buffered_get_traffic
                0x8002798c                spi_buffered_read
                0x800279cc                spi_buffered_is_transfered_finished
                0x800279f8                spi_buffered_bytes_available
                0x80027a24                spi_buffered_transmit
                0x80027a98                spi_handler
                0x80027b2c                spi1_int_handler
                0x80027b4c                spi0_int_handler
                0x80027b6c                spi_buffered_start
                0x80027bd0                spi_buffered_write
                0x80027c24                spi_buffered_resume
                0x80027c58                spi_buffered_flush_buffer
                0x80027c94                spi_buffered_disable
                0x80027cc4                spi_buffered_enable
                0x80027cf4                spi_buffered_trigger_DMA
                0x80027d88                spi_buffered_init_DMA
                0x80027e70                spi_buffered_init
 .text          0x80027f9c      0x6b0 Library/hal/uart_int.o
                0x80027f9c                uart_int_set_usart_conf
                0x80028028                uart_int_get_uart_handle
                0x8002804c                uart_int_register_write_stream
                0x80028084                uart_int_register_read_stream
                0x80028092                uart_int_flush
                0x800280c0                uart_out_buffer_empty
                0x800280e0                uart_int_send_byte
                0x8002811c                uart_int_bytes_available
                0x8002813c                uart_int_get_byte
                0x80028160                register_UART_handler
                0x80028238                uart_int_init
 .text          0x8002864c      0x518 Library/runtime/scheduler.o
                0x8002864c                scheduler_sort_tasks
                0x80028790                scheduler_get_task_by_id
                0x800287d4                scheduler_get_task_by_index
                0x800287f6                scheduler_change_run_mode
                0x80028802                scheduler_run_task_now
                0x80028830                scheduler_change_task_period
                0x80028860                scheduler_suspend_task
                0x80028884                scheduler_update
                0x80028a28                scheduler_add_task
                0x80028af4                scheduler_init
 .text          0x80028b64      0x4c4 Library/sensing/imu.o
                0x80028b64                imu_update
                0x80028e30                imu_init
 .text          0x80029028     0x1de8 Library/sensing/simulation.o
                0x80029028                simulation_calib_set
                0x80029188                simulation_switch_from_simulation_to_reality
                0x800293bc                simulation_switch_from_reality_to_simulation
                0x800293fc                simulation_simulate_sonar
                0x80029478                simulation_simulate_barometer
                0x800294b8                simulation_fake_gps_fix
                0x8002959c                simulation_simulate_gps
                0x8002963c                simulation_init
                0x800297c8                forces_from_servos_diag_quad
                0x80029fa8                simulation_update
 .text          0x8002ae10      0x1bc Library/util/buffer.o
                0x8002ae10                buffer_full
                0x8002ae2c                buffer_put_lossy
                0x8002ae78                buffer_put
                0x8002aec8                buffer_get
                0x8002aef8                buffer_empty
                0x8002af10                buffer_bytes_available
                0x8002af2c                buffer_init
                0x8002af44                buffer_clear
                0x8002af5c                buffer_make_buffered_stream
                0x8002af94                buffer_make_buffered_stream_lossy
 .text          0x8002afcc      0x554 Library/util/coord_conventions.o
                0x8002afcc                coord_conventions_get_yaw
                0x8002b044                coord_conventions_quaternion_from_aero
                0x8002b12c                coord_conventions_quat_to_aero
                0x8002b27c                coord_conventions_local_to_global_position
                0x8002b384                coord_conventions_global_to_local_position
 .text          0x8002b520      0x154 Library/util/generator.o
                0x8002b520                generator_init_dac_buffer_triangle
                0x8002b584                generator_ramp_generator
                0x8002b592                generator_arbitrary_generator
                0x8002b5b8                generator_init_dac_buffer_sine
 .text          0x8002b674      0x6ec Library/util/print_util.o
                0x8002b674                print_util_get_debug_stream
                0x8002b690                print_util_dbg_print_init
                0x8002b6ac                print_util_putstring
                0x8002b6e4                print_util_putstring_length
                0x8002b716                print_util_putdigit
                0x8002b750                putnum_tight
                0x8002b7d4                print_util_putnum
                0x8002b860                print_util_putlong
                0x8002b93c                print_util_putfloat
                0x8002ba04                print_util_print_vector
                0x8002ba98                print_util_print_quaternion
                0x8002bb0c                print_util_print_matrix
                0x8002bbf0                print_util_dbg_print
                0x8002bc18                print_util_dbg_print_num
                0x8002bc44                print_util_dbg_putfloat
                0x8002bc70                print_util_dbg_print_vector
                0x8002bc9c                print_util_dbg_print_quaternion
                0x8002bcc8                print_util_dbg_log_value
                0x8002bd14                print_util_dbg_print_long
 .text          0x8002bd60        0x0 Library/util/sinus.o
 .text          0x8002bd60      0x594 src/asf/avr32/drivers/adcifa/adcifa.o
                0x8002bd60                adcifa_get_calibration_data
                0x8002bd9c                adcifa_configure
                0x8002be50                adcifa_configure_sequencer
                0x8002c104                adcifa_configure_window_monitor
                0x8002c182                adcifa_start_sequencer
                0x8002c1be                adcifa_check_eoc
                0x8002c1f0                adcifa_check_eos
                0x8002c222                adcifa_get_values_from_sequencer
                0x8002c2ac                adcifa_start_itimer
                0x8002c2be                adcifa_stop_itimer
                0x8002c2cc                adcifa_enable_interrupt
                0x8002c2da                adcifa_disable_interrupt
                0x8002c2e8                adcifa_clear_interrupt
 .text          0x8002c2f4      0x21c src/asf/avr32/drivers/ast/ast.o
                0x8002c2f4                ast_enable
                0x8002c314                ast_set_calendar_value
                0x8002c332                ast_init_calendar
                0x8002c370                ast_set_counter_value
                0x8002c38c                ast_init_counter
                0x8002c3b8                ast_get_calendar_value
                0x8002c3c4                ast_get_counter_value
                0x8002c3d0                ast_set_alarm0_value
                0x8002c3dc                ast_set_alarm1_value
                0x8002c3e8                ast_enable_alarm0
                0x8002c40a                ast_disable_alarm0
                0x8002c42c                ast_enable_alarm1
                0x8002c44e                ast_disable_alarm1
                0x8002c470                ast_set_periodic0_value
                0x8002c47c                ast_set_periodic1_value
                0x8002c488                ast_enable_periodic0
                0x8002c4aa                ast_disable_periodic0
                0x8002c4cc                ast_enable_periodic1
                0x8002c4ee                ast_disable_periodic1
 .text          0x8002c510      0x444 src/asf/avr32/drivers/dacifb/dacifb.o
                0x8002c510                dacifb_get_calibration_data
                0x8002c53e                dacifb_check_eoc
                0x8002c54a                dacifb_set_value
                0x8002c586                dacifb_reload_timer
                0x8002c5de                dacifb_start_channel
                0x8002c688                dacifb_configure_channel
                0x8002c8ae                dacifb_configure
 .text          0x8002c954      0x1c8 src/asf/avr32/drivers/eic/eic.o
                0x8002c954                eic_init
                0x8002ca0e                eic_enable_lines
                0x8002ca1a                eic_enable_line
                0x8002ca2c                eic_disable_lines
                0x8002ca38                eic_disable_line
                0x8002ca4a                eic_is_line_enabled
                0x8002ca62                eic_enable_interrupt_lines
                0x8002ca6e                eic_enable_interrupt_line
                0x8002ca80                eic_is_interrupt_line_enabled
                0x8002ca98                eic_is_interrupt_line_pending
                0x8002cab0                eic_clear_interrupt_line
                0x8002cace                eic_clear_interrupt_lines
                0x8002cae6                eic_disable_interrupt_line
                0x8002cb04                eic_disable_interrupt_lines
 .text          0x8002cb1c     0x18f4 src/asf/avr32/drivers/flashc/flashc.o
                0x8002cb1c                flashc_get_flash_size
                0x8002cb44                flashc_get_page_count
                0x8002cb64                flashc_get_page_count_per_region
                0x8002cb84                flashc_get_region_first_page_number
                0x8002cba4                flashc_get_wait_state
                0x8002cbb8                flashc_set_wait_state
                0x8002cbce                flashc_set_bus_freq
                0x8002cc0c                flashc_is_ready_int_enabled
                0x8002cc20                flashc_enable_ready_int
                0x8002cc36                flashc_is_lock_error_int_enabled
                0x8002cc4a                flashc_enable_lock_error_int
                0x8002cc60                flashc_is_prog_error_int_enabled
                0x8002cc74                flashc_enable_prog_error_int
                0x8002cc8a                flashc_is_ready
                0x8002cc9e                flashc_default_wait_until_ready
                0x8002ccbc                flashc_is_lock_error
                0x8002ccdc                flashc_is_programming_error
                0x8002ccfc                flashc_get_command
                0x8002cd10                flashc_get_page_number
                0x8002cd24                flashc_get_page_region
                0x8002cd58                flashc_issue_command
                0x8002cdac                flashc_no_operation
                0x8002cdcc                flashc_erase_all
                0x8002cdec                flashc_is_security_bit_active
                0x8002ce00                flashc_activate_security_bit
                0x8002ce20                flashc_is_region_locked
                0x8002ce40                flashc_is_page_region_locked
                0x8002ce68                flashc_lock_page_region
                0x8002ce94                flashc_lock_region
                0x8002cec8                flashc_lock_all_regions
                0x8002d06c                flashc_read_all_gp_fuses
                0x8002d092                flashc_read_gp_fuse_byte
                0x8002d0dc                flashc_read_gp_fuse_bitfield
                0x8002d15c                flashc_get_bootloader_protected_size
                0x8002d190                flashc_read_gp_fuse_bit
                0x8002d1d8                flashc_is_external_privileged_fetch_locked
                0x8002d1fc                flashc_erase_gp_fuse_bit
                0x8002d238                flashc_erase_gp_fuse_bitfield
                0x8002d2ec                flashc_erase_all_gp_fuses
                0x8002d328                flashc_write_gp_fuse_bit
                0x8002d350                flashc_write_gp_fuse_bitfield
                0x8002d3bc                flashc_write_gp_fuse_byte
                0x8002d3e4                flashc_erase_gp_fuse_byte
                0x8002d5e0                flashc_write_all_gp_fuses
                0x8002d6ec                flashc_set_gp_fuse_bit
                0x8002d71c                flashc_lock_external_privileged_fetch
                0x8002d744                flashc_set_gp_fuse_bitfield
                0x8002d7b0                flashc_set_gp_fuse_byte
                0x8002d820                flashc_set_all_gp_fuses
                0x8002d894                flashc_clear_page_buffer
                0x8002d8b4                flashc_is_page_erased
                0x8002d8c8                flashc_quick_page_read
                0x8002d8f4                flashc_erase_page
                0x8002d93c                flashc_erase_all_pages
                0x8002d998                flashc_write_page
                0x8002d9b8                flashc_quick_user_page_read
                0x8002d9e4                flashc_erase_user_page
                0x8002da18                flashc_write_user_page
                0x8002da38                flashc_memset64
                0x8002dd64                flashc_memset32
                0x8002dd90                flashc_memset16
                0x8002ddb0                flashc_memset8
                0x8002ddd4                flashc_memcpy
                0x8002e300                flashc_set_flash_waitstate_and_readmode
                0x8002e36c                flashc_set_bootloader_protected_size
 .text          0x8002e410      0x64c src/asf/avr32/drivers/gpio/gpio.o
                0x8002e410                gpio_enable_module_pin
                0x8002e4f0                gpio_enable_module
                0x8002e530                gpio_enable_gpio_pin
                0x8002e54e                gpio_enable_gpio
                0x8002e580                gpio_enable_pin_pull_up
                0x8002e5a0                gpio_disable_pin_pull_up
                0x8002e5bc                gpio_enable_pin_pull_down
                0x8002e5dc                gpio_disable_pin_pull_down
                0x8002e5f8                gpio_enable_pin_buskeeper
                0x8002e618                gpio_disable_pin_buskeeper
                0x8002e638                gpio_configure_pin
                0x8002e702                gpio_configure_group
                0x8002e7ba                gpio_get_pin_value
                0x8002e7d8                gpio_get_gpio_pin_output_value
                0x8002e7f6                gpio_get_gpio_open_drain_pin_output_value
                0x8002e818                gpio_set_gpio_pin
                0x8002e83a                gpio_set_pin_high
                0x8002e856                gpio_set_group_high
                0x8002e86a                gpio_set_pin_low
                0x8002e886                gpio_clr_gpio_pin
                0x8002e8a8                gpio_set_group_low
                0x8002e8bc                gpio_tgl_gpio_pin
                0x8002e8de                gpio_toggle_pin
                0x8002e8fa                gpio_toggle_group
                0x8002e90e                gpio_set_gpio_open_drain_pin
                0x8002e92c                gpio_clr_gpio_open_drain_pin
                0x8002e94e                gpio_tgl_gpio_open_drain_pin
                0x8002e970                gpio_enable_pin_glitch_filter
                0x8002e98c                gpio_disable_pin_glitch_filter
                0x8002e9a8                gpio_enable_pin_interrupt
                0x8002ea02                gpio_disable_pin_interrupt
                0x8002ea1e                gpio_get_pin_interrupt_flag
                0x8002ea3e                gpio_clear_pin_interrupt_flag
 .text          0x8002ea5c        0x0 src/asf/avr32/drivers/intc/exception.o
 .text          0x8002ea5c       0xf4 src/asf/avr32/drivers/intc/intc.o
                0x8002ea64                INTC_register_interrupt
                0x8002eaa8                INTC_init_interrupts
                0x8002eb08                _get_interrupt_handler
 .text          0x8002eb50      0x394 src/asf/avr32/drivers/pdca/pdca.o
                0x8002eb50                pdca_get_handler
                0x8002eb6a                pdca_get_channel_status
                0x8002eb8c                pdca_disable
                0x8002ebac                pdca_enable
                0x8002ebcc                pdca_get_load_size
                0x8002ebec                pdca_get_reload_size
                0x8002ec0c                pdca_set_peripheral_select
                0x8002ec2c                pdca_set_transfer_size
                0x8002ec54                pdca_disable_event_trigger
                0x8002ec78                pdca_enable_event_trigger
                0x8002ec9c                pdca_enable_interrupt_transfer_error
                0x8002ecbc                pdca_enable_interrupt_transfer_complete
                0x8002ecdc                pdca_enable_interrupt_reload_counter_zero
                0x8002ecfc                pdca_get_transfer_status
                0x8002ed1c                pdca_disable_interrupt_reload_counter_zero
                0x8002ed58                pdca_disable_interrupt_transfer_complete
                0x8002ed94                pdca_disable_interrupt_transfer_error
                0x8002edd0                pdca_reload_channel
                0x8002ee1c                pdca_load_channel
                0x8002ee68                pdca_init_channel
 .text          0x8002eee4      0x376 src/asf/avr32/drivers/pevc/pevc.o
                0x8002eee4                pevc_channel_configure
                0x8002ef68                pevc_igfd_set
                0x8002ef78                pevc_channels_enable
                0x8002ef96                pevc_channels_disable
                0x8002efb4                pevc_get_channel_status
                0x8002eff2                pevc_get_channel_state
                0x8002f030                pevc_channel_sev_enable
                0x8002f04c                pevc_channels_trigger_sev
                0x8002f06a                pevc_channel_sev_disable
                0x8002f086                pevc_channels_enable_trigger_interrupt
                0x8002f0a4                pevc_channels_disable_trigger_interrupt
                0x8002f0c2                pevc_channel_is_trigger_interrupt_enabled
                0x8002f104                pevc_channel_is_trigger_interrupt_raised
                0x8002f142                pevc_channel_clear_trigger_interrupt
                0x8002f16e                pevc_channels_enable_overrun_interrupt
                0x8002f18c                pevc_channels_disable_overrun_interrupt
                0x8002f1aa                pevc_channel_is_overrun_interrupt_enabled
                0x8002f1ec                pevc_channel_is_overrun_interrupt_raised
                0x8002f22e                pevc_channel_clear_overrun_interrupt
 .text          0x8002f25a      0x1b6 src/asf/avr32/drivers/pm/pm_uc3c.o
                0x8002f25a                pm_wait_for_clk_ready
                0x8002f282                pm_disable_module
                0x8002f2c2                pm_enable_module
                0x8002f302                pm_disable_clk_domain_div
                0x8002f354                pm_set_clk_domain_div
                0x8002f3a6                pm_config_mainclk_safety
                0x8002f3ea                pm_set_mclk_source
 .text          0x8002f410      0x370 src/asf/avr32/drivers/pm/power_clocks_lib.o
                0x8002f410                pcl_read_gplp
                0x8002f42c                pcl_write_gplp
                0x8002f448                pcl_configure_usb_clock
                0x8002f4c0                pcl_switch_to_osc
                0x8002f524                pcl_configure_clocks
 .text          0x8002f780      0x8ec src/asf/avr32/drivers/pwm/pwm4.o
                0x8002f780                pwm_write_protect_hw_lock
                0x8002f84e                pwm_write_protect_sw_lock
                0x8002f912                pwm_write_protect_sw_unlock
                0x8002f9d4                pwm_write_protect_status
                0x8002f9f2                pwm_channel_init
                0x8002fa38                pwm_start_channels
                0x8002fa56                pwm_stop_channels
                0x8002fa74                pwm_update_channel
                0x8002fabe                pwm_interrupt_update_channel
                0x8002faf4                pwm_output_override_setup
                0x8002fb58                pwm_output_override_write
                0x8002fc1c                pwm_update_period_value
                0x8002fc2c                pwm_synchronous_prepare_update
                0x8002fc6a                pwm_update_manual_write_manual_update
                0x8002fc7e                pwm_update_manual_write_auto_update
                0x8002fc94                pwm_update_auto_write_auto_update_check_ready
                0x8002fcaa                pwm_update_auto_write_auto_update_check_eot
                0x8002fcc0                pwm_fault_lines_polarity_setup
                0x8002fd84                pwm_fault_lines_level_setup
                0x8002fe08                pwm_fault_lines_enable
                0x8002fe54                pwm_get_fault_status
                0x8002fe64                pwm_clr_fault_status
                0x8002fe7a                pwm_compare_match_setup
                0x8002fec2                pwm_compare_match_reload_setup
                0x8002ff0a                pwm_compare_event_enable
                0x8002ff2c                pwm_compare_event_disable
                0x8002ff56                pwm_init
 .text          0x8003006c      0x850 src/asf/avr32/drivers/scif/scif_uc3c.o
                0x8003006c                scif_read_gplp
                0x80030080                scif_write_gplp
                0x8003009e                scif_is_osc_ready
                0x800300c4                scif_wait_for_pll_locked
                0x800300ee                scif_start_gclk
                0x80030134                scif_stop_gclk
                0x8003016c                scif_gc_setup
                0x8003020c                scif_gc_enable
                0x80030230                scif_bod18_enable_irq
                0x80030242                scif_bod18_clear_irq
                0x80030254                scif_bod18_get_irq_status
                0x80030268                scif_bod18_get_irq_enable_bit
                0x8003027c                scif_bod18_get_level
                0x80030290                scif_bod33_enable_irq
                0x800302a4                scif_bod33_clear_irq
                0x800302b8                scif_bod33_get_irq_status
                0x800302cc                scif_bod33_get_irq_enable_bit
                0x800302e0                scif_bod33_get_level
                0x800302f4                scif_bod50_enable_irq
                0x80030308                scif_bod50_clear_irq
                0x8003031c                scif_bod50_get_irq_status
                0x80030330                scif_bod50_get_irq_enable_bit
                0x80030344                scif_bod50_get_level
                0x80030358                scif_bod50_disable_irq
                0x8003038c                scif_bod33_disable_irq
                0x800303c0                scif_bod18_disable_irq
                0x800303f0                scif_stop_rc120M
                0x8003041c                scif_start_rc120M
                0x80030446                scif_stop_rc8M
                0x80030472                scif_start_rc8M
                0x800304a6                scif_stop_osc32
                0x800304d2                scif_start_osc32
                0x80030530                scif_pll_disable
                0x80030578                scif_pll_enable
                0x800305c0                scif_pll_setup
                0x80030632                scif_enable_extosc
                0x8003067a                scif_enable_osc
                0x800306ec                scif_configure_osc_extmode
                0x80030734                scif_configure_osc_crystalmode
                0x800307f8                scif_stop_osc
                0x8003082a                scif_start_osc
 .text          0x800308bc      0x3c0 src/asf/avr32/drivers/spi/spi.o
                0x800308bc                getBaudDiv
                0x800308e0                spi_initSlave
                0x80030944                spi_initTest
                0x80030960                spi_initMaster
                0x800309a2                spi_selectionMode
                0x800309e2                spi_selectChip
                0x80030a3e                spi_unselectChip
                0x80030a6e                spi_setupChipReg
                0x80030b38                spi_enable
                0x80030b46                spi_disable
                0x80030b54                spi_is_enabled
                0x80030b64                spi_writeRegisterEmptyCheck
                0x80030b74                spi_write
                0x80030b9a                spi_variableSlaveWrite
                0x80030bf0                spi_writeEndCheck
                0x80030c00                spi_readRegisterFullCheck
                0x80030c10                spi_read
                0x80030c3c                spi_getStatus
 .text          0x80030c7c      0x472 src/asf/avr32/drivers/tc/tc.o
                0x80030c7c                tc_get_interrupt_settings
                0x80030c98                tc_select_external_clock
                0x80030ce0                tc_init_capture
                0x80030d08                tc_init_waveform
                0x80030dae                tc_start
                0x80030dd2                tc_stop
                0x80030df6                tc_software_trigger
                0x80030e1a                tc_sync_trigger
                0x80030e2a                tc_sync_start
                0x80030e44                tc_read_sr
                0x80030e60                tc_read_tc
                0x80030e80                tc_read_ra
                0x80030ea0                tc_read_rb
                0x80030ec0                tc_read_rc
                0x80030ee0                tc_write_ra
                0x80030f24                tc_write_rb
                0x80030f68                tc_write_rc
                0x80030fac                tc_configure_interrupts
 *fill*         0x800310ee        0x2 d703d703
 .text          0x800310f0      0x8cc src/asf/avr32/drivers/twim/twim.o
                0x80031268                twim_set_speed
                0x800312e6                twim_status
                0x80031308                twim_disable_interrupt
                0x80031324                twim_chained_transfer
                0x80031520                twim_write
                0x800315ec                twim_probe
                0x8003161c                twim_write_packet
                0x80031728                twim_read
                0x800317f4                twim_read_packet
                0x800318dc                twim_master_init
 .text          0x800319bc      0x9c8 src/asf/avr32/drivers/usart/usart.o
                0x800319bc                usart_spi_selectChip
                0x800319cc                usart_spi_unselectChip
                0x800319f4                usart_write_char
                0x80031a14                usart_send_address
                0x80031a54                usart_putchar
                0x80031a8c                usart_read_char
                0x80031abc                usart_getchar
                0x80031af8                usart_write_line
                0x80031b28                usart_get_echo_line
                0x80031b90                usart_reset
                0x80031bc4                usart_init_spi_slave
                0x80031c64                usart_init_spi_master
                0x80031d24                usart_init_iso7816
                0x80031dd8                usart_init_sync_slave
                0x80031ea4                usart_init_sync_master
                0x80031f94                usart_init_rs232_tx_only
                0x80032080                usart_init_rs232
                0x8003219c                usart_init_IrDA
                0x800321dc                usart_init_rs485
                0x8003220c                usart_init_modem
                0x8003223c                usart_init_hw_handshaking
                0x8003226c                usart_init_lin_master
                0x800322f8                usart_init_lin_slave
 .text          0x80032384     0x1210 src/asf/avr32/drivers/usbc/usbc_device.o
                0x80032384                udd_include_vbus_monitoring
                0x8003238e                udd_is_high_speed
                0x80032398                udd_set_address
                0x800323c2                udd_getaddress
                0x800323d6                udd_get_frame_number
                0x800323ea                udd_get_micro_frame_number
                0x800323f4                udd_set_setup_payload
                0x80032414                udd_ep_is_halted
                0x8003242e                udd_ep_clear_halt
                0x8003249c                udd_ep_wait_stall_clear
                0x8003250c                udd_ep_alloc
                0x8003274c                udd_ep_abort
                0x80032774                udd_ep_set_halt
                0x800327b4                udd_ep_free
                0x800327e4                udd_ep_run
                0x80032bec                udd_enable
                0x80033310                udd_detach
                0x80033374                udd_attach
                0x800334ac                udd_disable
                0x80033538                udd_send_wake_up
 .text          0x80033594       0x8c src/asf/avr32/services/delay/delay.o
                0x80033594                delay_init
                0x800335b0                delay_ms
 .text          0x80033620        0x0 src/asf/avr32/utils/startup/startup_uc3.o
 .text._stext   0x80033620       0x50 src/asf/avr32/utils/startup/startup_uc3.o
                0x80033620                _stext
 .text          0x80033670        0x0 src/asf/avr32/utils/startup/trampoline_uc3.o
 .text          0x80033670       0x30 src/asf/common/boards/user_board/init.o
                0x80033670                board_init
 .text          0x800336a0      0x154 src/asf/common/services/clock/uc3c/osc.o
                0x800336a0                osc_priv_disable_rc120m
                0x800336c6                osc_priv_enable_rc120m
                0x800336ec                osc_priv_disable_rc8m
                0x8003371a                osc_priv_enable_rc8m
                0x8003375c                osc_priv_disable_osc32
                0x80033782                osc_priv_enable_osc32
                0x800337aa                osc_priv_disable_osc0
                0x800337ce                osc_priv_enable_osc0
 .text          0x800337f4       0x80 src/asf/common/services/clock/uc3c/pll.o
                0x800337f4                pll_disable
                0x8003381e                pll_enable
                0x8003384a                pll_config_write
 .text          0x80033874      0x220 src/asf/common/services/clock/uc3c/sysclk.o
                0x80033874                sysclk_disable_usb
                0x80033888                sysclk_set_source
                0x800338aa                sysclk_set_prescalers
                0x8003391a                sysclk_priv_disable_module
                0x80033954                sysclk_priv_enable_module
                0x8003398c                sysclk_enable_usb
                0x800339e8                sysclk_init
 .text          0x80033a94        0x0 src/asf/common/services/sleepmgr/uc3/sleepmgr.o
 .text          0x80033a94      0x284 src/asf/common/services/spi/uc3_spi/spi_master.o
                0x80033a94                spi_read_packet
                0x80033aec                spi_write_packet
                0x80033b1c                spi_master_setup_device
 .text          0x80033d18      0xab4 src/asf/common/services/usb/class/cdc/device/udi_cdc.o
                0x80033d18                udi_cdc_data_disable
                0x80033d22                udi_cdc_comm_setup
                0x80033db8                udi_cdc_data_setup
                0x80033dc2                udi_cdc_getsetting
                0x80033dcc                udi_cdc_line_coding_received
                0x80033dd6                udi_cdc_is_rx_ready
                0x80033e08                udi_cdc_is_tx_ready
                0x80033e7c                udi_cdc_write_buf
                0x80033f34                udi_cdc_putc
                0x80033fac                udi_cdc_data_recevied
                0x8003404c                udi_cdc_signal_parity_error
                0x800340c0                udi_cdc_serial_state_msg_sent
                0x80034248                udi_cdc_data_sent
                0x80034284                udi_cdc_data_sof_notify
                0x80034298                udi_cdc_comm_disable
                0x800342c4                udi_cdc_comm_enable
                0x8003430c                udi_cdc_getc
                0x800343f4                udi_cdc_read_buf
                0x80034500                udi_cdc_ctrl_signal_dcd
                0x80034594                udi_cdc_signal_framing_error
                0x80034608                udi_cdc_ctrl_signal_dsr
                0x8003469c                udi_cdc_signal_overrun
                0x80034710                udi_cdc_data_enable
 .text          0x800347cc        0x0 src/asf/common/services/usb/class/cdc/device/udi_cdc_desc.o
 .text          0x800347cc      0x88c src/asf/common/services/usb/udc/udc.o
                0x800347cc                udc_get_interface_desc
                0x800347e8                udc_sof_notify
                0x80034a9c                udc_reset
                0x80034af0                udc_process_setup
 .text          0x80035058       0x74 src/asf/common/utils/stdio/read.o
                0x80035058                _read
 .text          0x800350cc      0x154 src/asf/common/utils/stdio/stdio_usb/stdio_usb.o
                0x800350cc                stdio_usb_enable
                0x800350ec                stdio_usb_disable
                0x8003510c                stdio_usb_vbus_event
                0x8003513c                stdio_usb_init
                0x800351a0                stdio_usb_getchar
                0x800351e8                stdio_usb_putchar
 .text          0x80035220       0x50 src/asf/common/utils/stdio/write.o
                0x80035220                _write
 .text          0x80035270      0xbb4 src/boardsupport.o
                0x80035270                boardsupport_init
 .text          0x80035e24       0xc0 src/main.o
                0x80035e24                initialisation()
                0x80035eac                main
 .text          0x80035ee4        0x0 d:/programmes/atmel/studio/7.0/toolchain/avr32/avr32-gnu-toolchain/bin/../lib/gcc/avr32/4.4.7/../../../../avr32/lib/ucr3fp\libm.a(lib_a-s_cos.o)
 .text.cos      0x80035ee4       0x9c d:/programmes/atmel/studio/7.0/toolchain/avr32/avr32-gnu-toolchain/bin/../lib/gcc/avr32/4.4.7/../../../../avr32/lib/ucr3fp\libm.a(lib_a-s_cos.o)
                0x80035ee4                cos
 .text          0x80035f80        0x0 d:/programmes/atmel/studio/7.0/toolchain/avr32/avr32-gnu-toolchain/bin/../lib/gcc/avr32/4.4.7/../../../../avr32/lib/ucr3fp\libm.a(lib_a-s_floor.o)
 .text.floor    0x80035f80      0x128 d:/programmes/atmel/studio/7.0/toolchain/avr32/avr32-gnu-toolchain/bin/../lib/gcc/avr32/4.4.7/../../../../avr32/lib/ucr3fp\libm.a(lib_a-s_floor.o)
                0x80035f80                floor
 .text          0x800360a8        0x0 d:/programmes/atmel/studio/7.0/toolchain/avr32/avr32-gnu-toolchain/bin/../lib/gcc/avr32/4.4.7/../../../../avr32/lib/ucr3fp\libm.a(lib_a-s_sin.o)
 .text.sin      0x800360a8       0xa0 d:/programmes/atmel/studio/7.0/toolchain/avr32/avr32-gnu-toolchain/bin/../lib/gcc/avr32/4.4.7/../../../../avr32/lib/ucr3fp\libm.a(lib_a-s_sin.o)
                0x800360a8                sin
 .text          0x80036148        0x0 d:/programmes/atmel/studio/7.0/toolchain/avr32/avr32-gnu-toolchain/bin/../lib/gcc/avr32/4.4.7/../../../../avr32/lib/ucr3fp\libm.a(lib_a-w_asin.o)
 .text.asin     0x80036148       0xb0 d:/programmes/atmel/studio/7.0/toolchain/avr32/avr32-gnu-toolchain/bin/../lib/gcc/avr32/4.4.7/../../../../avr32/lib/ucr3fp\libm.a(lib_a-w_asin.o)
                0x80036148                asin
 .text          0x800361f8        0x0 d:/programmes/atmel/studio/7.0/toolchain/avr32/avr32-gnu-toolchain/bin/../lib/gcc/avr32/4.4.7/../../../../avr32/lib/ucr3fp\libm.a(lib_a-w_atan2.o)
 .text.atan2    0x800361f8        0xc d:/programmes/atmel/studio/7.0/toolchain/avr32/avr32-gnu-toolchain/bin/../lib/gcc/avr32/4.4.7/../../../../avr32/lib/ucr3fp\libm.a(lib_a-w_atan2.o)
                0x800361f8                atan2
 .text          0x80036204        0x0 d:/programmes/atmel/studio/7.0/toolchain/avr32/avr32-gnu-toolchain/bin/../lib/gcc/avr32/4.4.7/../../../../avr32/lib/ucr3fp\libm.a(lib_a-w_fmod.o)
 .text.fmod     0x80036204       0xbc d:/programmes/atmel/studio/7.0/toolchain/avr32/avr32-gnu-toolchain/bin/../lib/gcc/avr32/4.4.7/../../../../avr32/lib/ucr3fp\libm.a(lib_a-w_fmod.o)
                0x80036204                fmod
 .text          0x800362c0        0x0 d:/programmes/atmel/studio/7.0/toolchain/avr32/avr32-gnu-toolchain/bin/../lib/gcc/avr32/4.4.7/../../../../avr32/lib/ucr3fp\libm.a(lib_a-w_pow.o)
 .text.pow      0x800362c0      0x300 d:/programmes/atmel/studio/7.0/toolchain/avr32/avr32-gnu-toolchain/bin/../lib/gcc/avr32/4.4.7/../../../../avr32/lib/ucr3fp\libm.a(lib_a-w_pow.o)
                0x800362c0                pow
 .text          0x800365c0        0x0 d:/programmes/atmel/studio/7.0/toolchain/avr32/avr32-gnu-toolchain/bin/../lib/gcc/avr32/4.4.7/../../../../avr32/lib/ucr3fp\libm.a(lib_a-w_sqrt.o)
 .text.sqrt     0x800365c0       0xb4 d:/programmes/atmel/studio/7.0/toolchain/avr32/avr32-gnu-toolchain/bin/../lib/gcc/avr32/4.4.7/../../../../avr32/lib/ucr3fp\libm.a(lib_a-w_sqrt.o)
                0x800365c0                sqrt
 .text          0x80036674        0x0 d:/programmes/atmel/studio/7.0/toolchain/avr32/avr32-gnu-toolchain/bin/../lib/gcc/avr32/4.4.7/../../../../avr32/lib/ucr3fp\libm.a(lib_a-wf_sqrt.o)
 .text.sqrtf    0x80036674       0xbc d:/programmes/atmel/studio/7.0/toolchain/avr32/avr32-gnu-toolchain/bin/../lib/gcc/avr32/4.4.7/../../../../avr32/lib/ucr3fp\libm.a(lib_a-wf_sqrt.o)
                0x80036674                sqrtf
 .text          0x80036730        0x0 d:/programmes/atmel/studio/7.0/toolchain/avr32/avr32-gnu-toolchain/bin/../lib/gcc/avr32/4.4.7/../../../../avr32/lib/ucr3fp\libm.a(lib_a-e_asin.o)
 .text.__ieee754_asin
                0x80036730      0x50c d:/programmes/atmel/studio/7.0/toolchain/avr32/avr32-gnu-toolchain/bin/../lib/gcc/avr32/4.4.7/../../../../avr32/lib/ucr3fp\libm.a(lib_a-e_asin.o)
                0x80036730                __ieee754_asin
 .text          0x80036c3c        0x0 d:/programmes/atmel/studio/7.0/toolchain/avr32/avr32-gnu-toolchain/bin/../lib/gcc/avr32/4.4.7/../../../../avr32/lib/ucr3fp\libm.a(lib_a-e_atan2.o)
 .text.__ieee754_atan2
                0x80036c3c      0x240 d:/programmes/atmel/studio/7.0/toolchain/avr32/avr32-gnu-toolchain/bin/../lib/gcc/avr32/4.4.7/../../../../avr32/lib/ucr3fp\libm.a(lib_a-e_atan2.o)
                0x80036c3c                __ieee754_atan2
 .text          0x80036e7c        0x0 d:/programmes/atmel/studio/7.0/toolchain/avr32/avr32-gnu-toolchain/bin/../lib/gcc/avr32/4.4.7/../../../../avr32/lib/ucr3fp\libm.a(lib_a-e_fmod.o)
 .text.__ieee754_fmod
                0x80036e7c      0x240 d:/programmes/atmel/studio/7.0/toolchain/avr32/avr32-gnu-toolchain/bin/../lib/gcc/avr32/4.4.7/../../../../avr32/lib/ucr3fp\libm.a(lib_a-e_fmod.o)
                0x80036e7c                __ieee754_fmod
 .text          0x800370bc        0x0 d:/programmes/atmel/studio/7.0/toolchain/avr32/avr32-gnu-toolchain/bin/../lib/gcc/avr32/4.4.7/../../../../avr32/lib/ucr3fp\libm.a(lib_a-e_pow.o)
 .text.__ieee754_pow
                0x800370bc      0xaf0 d:/programmes/atmel/studio/7.0/toolchain/avr32/avr32-gnu-toolchain/bin/../lib/gcc/avr32/4.4.7/../../../../avr32/lib/ucr3fp\libm.a(lib_a-e_pow.o)
                0x800370bc                __ieee754_pow
 .text          0x80037bac        0x0 d:/programmes/atmel/studio/7.0/toolchain/avr32/avr32-gnu-toolchain/bin/../lib/gcc/avr32/4.4.7/../../../../avr32/lib/ucr3fp\libm.a(lib_a-e_rem_pio2.o)
 .text.__ieee754_rem_pio2
                0x80037bac      0x4a0 d:/programmes/atmel/studio/7.0/toolchain/avr32/avr32-gnu-toolchain/bin/../lib/gcc/avr32/4.4.7/../../../../avr32/lib/ucr3fp\libm.a(lib_a-e_rem_pio2.o)
                0x80037bac                __ieee754_rem_pio2
 .text          0x8003804c        0x0 d:/programmes/atmel/studio/7.0/toolchain/avr32/avr32-gnu-toolchain/bin/../lib/gcc/avr32/4.4.7/../../../../avr32/lib/ucr3fp\libm.a(lib_a-e_sqrt.o)
 .text.__ieee754_sqrt
                0x8003804c      0x19c d:/programmes/atmel/studio/7.0/toolchain/avr32/avr32-gnu-toolchain/bin/../lib/gcc/avr32/4.4.7/../../../../avr32/lib/ucr3fp\libm.a(lib_a-e_sqrt.o)
                0x8003804c                __ieee754_sqrt
 .text          0x800381e8        0x0 d:/programmes/atmel/studio/7.0/toolchain/avr32/avr32-gnu-toolchain/bin/../lib/gcc/avr32/4.4.7/../../../../avr32/lib/ucr3fp\libm.a(lib_a-ef_sqrt.o)
 .text.__ieee754_sqrtf
                0x800381e8       0xd4 d:/programmes/atmel/studio/7.0/toolchain/avr32/avr32-gnu-toolchain/bin/../lib/gcc/avr32/4.4.7/../../../../avr32/lib/ucr3fp\libm.a(lib_a-ef_sqrt.o)
                0x800381e8                __ieee754_sqrtf
 .text          0x800382bc        0x0 d:/programmes/atmel/studio/7.0/toolchain/avr32/avr32-gnu-toolchain/bin/../lib/gcc/avr32/4.4.7/../../../../avr32/lib/ucr3fp\libm.a(lib_a-k_cos.o)
 .text.__kernel_cos
                0x800382bc      0x1f8 d:/programmes/atmel/studio/7.0/toolchain/avr32/avr32-gnu-toolchain/bin/../lib/gcc/avr32/4.4.7/../../../../avr32/lib/ucr3fp\libm.a(lib_a-k_cos.o)
                0x800382bc                __kernel_cos
 .text          0x800384b4        0x0 d:/programmes/atmel/studio/7.0/toolchain/avr32/avr32-gnu-toolchain/bin/../lib/gcc/avr32/4.4.7/../../../../avr32/lib/ucr3fp\libm.a(lib_a-k_rem_pio2.o)
 .text.__kernel_rem_pio2
                0x800384b4      0x718 d:/programmes/atmel/studio/7.0/toolchain/avr32/avr32-gnu-toolchain/bin/../lib/gcc/avr32/4.4.7/../../../../avr32/lib/ucr3fp\libm.a(lib_a-k_rem_pio2.o)
                0x800384b4                __kernel_rem_pio2
 .text          0x80038bcc        0x0 d:/programmes/atmel/studio/7.0/toolchain/avr32/avr32-gnu-toolchain/bin/../lib/gcc/avr32/4.4.7/../../../../avr32/lib/ucr3fp\libm.a(lib_a-k_sin.o)
 .text.__kernel_sin
                0x80038bcc      0x1a4 d:/programmes/atmel/studio/7.0/toolchain/avr32/avr32-gnu-toolchain/bin/../lib/gcc/avr32/4.4.7/../../../../avr32/lib/ucr3fp\libm.a(lib_a-k_sin.o)
                0x80038bcc                __kernel_sin
 .text          0x80038d70        0x0 d:/programmes/atmel/studio/7.0/toolchain/avr32/avr32-gnu-toolchain/bin/../lib/gcc/avr32/4.4.7/../../../../avr32/lib/ucr3fp\libm.a(lib_a-s_atan.o)
 .text.atan     0x80038d70      0x368 d:/programmes/atmel/studio/7.0/toolchain/avr32/avr32-gnu-toolchain/bin/../lib/gcc/avr32/4.4.7/../../../../avr32/lib/ucr3fp\libm.a(lib_a-s_atan.o)
                0x80038d70                atan
 .text          0x800390d8        0x0 d:/programmes/atmel/studio/7.0/toolchain/avr32/avr32-gnu-toolchain/bin/../lib/gcc/avr32/4.4.7/../../../../avr32/lib/ucr3fp\libm.a(lib_a-s_fabs.o)
 .text.fabs     0x800390d8        0x8 d:/programmes/atmel/studio/7.0/toolchain/avr32/avr32-gnu-toolchain/bin/../lib/gcc/avr32/4.4.7/../../../../avr32/lib/ucr3fp\libm.a(lib_a-s_fabs.o)
                0x800390d8                fabs
 .text          0x800390e0        0x0 d:/programmes/atmel/studio/7.0/toolchain/avr32/avr32-gnu-toolchain/bin/../lib/gcc/avr32/4.4.7/../../../../avr32/lib/ucr3fp\libm.a(lib_a-s_finite.o)
 .text.finite   0x800390e0       0x10 d:/programmes/atmel/studio/7.0/toolchain/avr32/avr32-gnu-toolchain/bin/../lib/gcc/avr32/4.4.7/../../../../avr32/lib/ucr3fp\libm.a(lib_a-s_finite.o)
                0x800390e0                finite
 .text          0x800390f0        0x0 d:/programmes/atmel/studio/7.0/toolchain/avr32/avr32-gnu-toolchain/bin/../lib/gcc/avr32/4.4.7/../../../../avr32/lib/ucr3fp\libm.a(lib_a-s_isnand.o)
 .text.__isnand
                0x800390f0       0x1c d:/programmes/atmel/studio/7.0/toolchain/avr32/avr32-gnu-toolchain/bin/../lib/gcc/avr32/4.4.7/../../../../avr32/lib/ucr3fp\libm.a(lib_a-s_isnand.o)
                0x800390f0                __isnand
 .text          0x8003910c        0x0 d:/programmes/atmel/studio/7.0/toolchain/avr32/avr32-gnu-toolchain/bin/../lib/gcc/avr32/4.4.7/../../../../avr32/lib/ucr3fp\libm.a(lib_a-s_lib_ver.o)
 .text          0x8003910c        0x0 d:/programmes/atmel/studio/7.0/toolchain/avr32/avr32-gnu-toolchain/bin/../lib/gcc/avr32/4.4.7/../../../../avr32/lib/ucr3fp\libm.a(lib_a-s_matherr.o)
 .text.matherr  0x8003910c        0x2 d:/programmes/atmel/studio/7.0/toolchain/avr32/avr32-gnu-toolchain/bin/../lib/gcc/avr32/4.4.7/../../../../avr32/lib/ucr3fp\libm.a(lib_a-s_matherr.o)
                0x8003910c                matherr
 .text          0x8003910e        0x0 d:/programmes/atmel/studio/7.0/toolchain/avr32/avr32-gnu-toolchain/bin/../lib/gcc/avr32/4.4.7/../../../../avr32/lib/ucr3fp\libm.a(lib_a-s_nan.o)
 .text.nan      0x8003910e        0x8 d:/programmes/atmel/studio/7.0/toolchain/avr32/avr32-gnu-toolchain/bin/../lib/gcc/avr32/4.4.7/../../../../avr32/lib/ucr3fp\libm.a(lib_a-s_nan.o)
                0x8003910e                nan
 .text          0x80039116        0x0 d:/programmes/atmel/studio/7.0/toolchain/avr32/avr32-gnu-toolchain/bin/../lib/gcc/avr32/4.4.7/../../../../avr32/lib/ucr3fp\libm.a(lib_a-s_rint.o)
 *fill*         0x80039116        0x2 d703d703
 .text.rint     0x80039118      0x124 d:/programmes/atmel/studio/7.0/toolchain/avr32/avr32-gnu-toolchain/bin/../lib/gcc/avr32/4.4.7/../../../../avr32/lib/ucr3fp\libm.a(lib_a-s_rint.o)
                0x80039118                rint
 .text          0x8003923c        0x0 d:/programmes/atmel/studio/7.0/toolchain/avr32/avr32-gnu-toolchain/bin/../lib/gcc/avr32/4.4.7/../../../../avr32/lib/ucr3fp\libm.a(lib_a-s_scalbn.o)
 .text.scalbn   0x8003923c       0xf0 d:/programmes/atmel/studio/7.0/toolchain/avr32/avr32-gnu-toolchain/bin/../lib/gcc/avr32/4.4.7/../../../../avr32/lib/ucr3fp\libm.a(lib_a-s_scalbn.o)
                0x8003923c                scalbn
 .text          0x8003932c        0x0 d:/programmes/atmel/studio/7.0/toolchain/avr32/avr32-gnu-toolchain/bin/../lib/gcc/avr32/4.4.7/../../../../avr32/lib/ucr3fp\libm.a(lib_a-sf_isnan.o)
 .text.isnanf   0x8003932c        0xe d:/programmes/atmel/studio/7.0/toolchain/avr32/avr32-gnu-toolchain/bin/../lib/gcc/avr32/4.4.7/../../../../avr32/lib/ucr3fp\libm.a(lib_a-sf_isnan.o)
                0x8003932c                isnanf
 .text          0x8003933a        0x0 d:/programmes/atmel/studio/7.0/toolchain/avr32/avr32-gnu-toolchain/bin/../lib/gcc/avr32/4.4.7/../../../../avr32/lib/ucr3fp\libm.a(lib_a-s_copysign.o)
 .text.copysign
                0x8003933a       0x18 d:/programmes/atmel/studio/7.0/toolchain/avr32/avr32-gnu-toolchain/bin/../lib/gcc/avr32/4.4.7/../../../../avr32/lib/ucr3fp\libm.a(lib_a-s_copysign.o)
                0x8003933a                copysign
 *fill*         0x80039352        0x2 d703d703
 .text          0x80039354      0x1d4 d:/programmes/atmel/studio/7.0/toolchain/avr32/avr32-gnu-toolchain/bin/../lib/gcc/avr32/4.4.7/ucr3fp\libgcc.a(_avr32_f64_mul.o)
                0x80039354                __avr32_f64_mul
 .text          0x80039528      0x2b0 d:/programmes/atmel/studio/7.0/toolchain/avr32/avr32-gnu-toolchain/bin/../lib/gcc/avr32/4.4.7/ucr3fp\libgcc.a(_avr32_f64_addsub.o)
                0x8003952c                __avr32_f64_sub
                0x800396c8                __avr32_f64_add
 .text          0x800397d8       0x2a d:/programmes/atmel/studio/7.0/toolchain/avr32/avr32-gnu-toolchain/bin/../lib/gcc/avr32/4.4.7/ucr3fp\libgcc.a(_avr32_f64_to_s32.o)
                0x800397d8                __avr32_f64_to_u32
                0x800397dc                __avr32_f64_to_s32
 .text          0x80039802       0x60 d:/programmes/atmel/studio/7.0/toolchain/avr32/avr32-gnu-toolchain/bin/../lib/gcc/avr32/4.4.7/ucr3fp\libgcc.a(_avr32_f64_to_s64.o)
                0x80039802                __avr32_f64_to_u64
                0x8003980e                __avr32_f64_to_s64
 .text          0x80039862       0xe8 d:/programmes/atmel/studio/7.0/toolchain/avr32/avr32-gnu-toolchain/bin/../lib/gcc/avr32/4.4.7/ucr3fp\libgcc.a(_avr32_s32_to_f64.o)
                0x80039862                __avr32_u32_to_f64
                0x8003986a                __avr32_s32_to_f64
 .text          0x8003994a       0x26 d:/programmes/atmel/studio/7.0/toolchain/avr32/avr32-gnu-toolchain/bin/../lib/gcc/avr32/4.4.7/ucr3fp\libgcc.a(_avr32_f64_cmp_eq.o)
                0x8003994a                __avr32_f64_cmp_eq
 .text          0x80039970       0x68 d:/programmes/atmel/studio/7.0/toolchain/avr32/avr32-gnu-toolchain/bin/../lib/gcc/avr32/4.4.7/ucr3fp\libgcc.a(_avr32_f64_cmp_ge.o)
                0x80039970                __avr32_f64_cmp_ge
 .text          0x800399d8       0x68 d:/programmes/atmel/studio/7.0/toolchain/avr32/avr32-gnu-toolchain/bin/../lib/gcc/avr32/4.4.7/ucr3fp\libgcc.a(_avr32_f64_cmp_lt.o)
                0x800399d8                __avr32_f64_cmp_lt
 .text          0x80039a40       0x34 d:/programmes/atmel/studio/7.0/toolchain/avr32/avr32-gnu-toolchain/bin/../lib/gcc/avr32/4.4.7/ucr3fp\libgcc.a(_avr32_f32_cmp_lt.o)
                0x80039a40                __avr32_f32_cmp_lt
 .text          0x80039a74      0x318 d:/programmes/atmel/studio/7.0/toolchain/avr32/avr32-gnu-toolchain/bin/../lib/gcc/avr32/4.4.7/ucr3fp\libgcc.a(_avr32_f64_div.o)
                0x80039a74                __avr32_f64_div
 .text          0x80039d8c      0x160 d:/programmes/atmel/studio/7.0/toolchain/avr32/avr32-gnu-toolchain/bin/../lib/gcc/avr32/4.4.7/ucr3fp\libgcc.a(_avr32_f32_div.o)
                0x80039d8c                __avr32_f32_div
 .text          0x80039eec      0x180 d:/programmes/atmel/studio/7.0/toolchain/avr32/avr32-gnu-toolchain/bin/../lib/gcc/avr32/4.4.7/ucr3fp\libgcc.a(_avr32_f32_addsub.o)
                0x80039ef0                __avr32_f32_sub
                0x80039fc0                __avr32_f32_add
 .text          0x8003a06c       0xe2 d:/programmes/atmel/studio/7.0/toolchain/avr32/avr32-gnu-toolchain/bin/../lib/gcc/avr32/4.4.7/ucr3fp\libgcc.a(_avr32_f32_mul.o)
                0x8003a06c                __avr32_f32_mul
 .text          0x8003a14e       0x60 d:/programmes/atmel/studio/7.0/toolchain/avr32/avr32-gnu-toolchain/bin/../lib/gcc/avr32/4.4.7/ucr3fp\libgcc.a(_avr32_f32_to_f64.o)
                0x8003a14e                __avr32_f32_to_f64
 .text          0x8003a1ae       0x8a d:/programmes/atmel/studio/7.0/toolchain/avr32/avr32-gnu-toolchain/bin/../lib/gcc/avr32/4.4.7/ucr3fp\libgcc.a(_avr32_f64_to_f32.o)
                0x8003a1ae                __avr32_f64_to_f32
 .text          0x8003a238       0x3c d:/programmes/atmel/studio/7.0/toolchain/avr32/avr32-gnu-toolchain/bin/../lib/gcc/avr32/4.4.7/ucr3fp\libgcc.a(_floatdidf.o)
                0x8003a238                __avr32_s64_to_f64
                0x8003a238                __floatdidf
 .text          0x8003a274      0x2b4 d:/programmes/atmel/studio/7.0/toolchain/avr32/avr32-gnu-toolchain/bin/../lib/gcc/avr32/4.4.7/ucr3fp\libgcc.a(_divdi3.o)
                0x8003a274                __avr32_sdiv64
                0x8003a274                __divdi3
 .text          0x8003a528      0x280 d:/programmes/atmel/studio/7.0/toolchain/avr32/avr32-gnu-toolchain/bin/../lib/gcc/avr32/4.4.7/ucr3fp\libgcc.a(_moddi3.o)
                0x8003a528                __moddi3
                0x8003a528                __avr32_smod64
 .text          0x8003a7a8      0x264 d:/programmes/atmel/studio/7.0/toolchain/avr32/avr32-gnu-toolchain/bin/../lib/gcc/avr32/4.4.7/ucr3fp\libgcc.a(_udivdi3.o)
                0x8003a7a8                __avr32_udiv64
                0x8003a7a8                __udivdi3
 .text          0x8003aa0c      0x20c d:/programmes/atmel/studio/7.0/toolchain/avr32/avr32-gnu-toolchain/bin/../lib/gcc/avr32/4.4.7/ucr3fp\libgcc.a(_umoddi3.o)
                0x8003aa0c                __avr32_umod64
                0x8003aa0c                __umoddi3
 .text          0x8003ac18        0x0 d:/programmes/atmel/studio/7.0/toolchain/avr32/avr32-gnu-toolchain/bin/../lib/gcc/avr32/4.4.7/../../../../avr32/lib/ucr3fp\libc.a(lib_a-errno.o)
 .text.__errno  0x8003ac18        0xc d:/programmes/atmel/studio/7.0/toolchain/avr32/avr32-gnu-toolchain/bin/../lib/gcc/avr32/4.4.7/../../../../avr32/lib/ucr3fp\libc.a(lib_a-errno.o)
                0x8003ac18                __errno
 .text          0x8003ac24        0x0 d:/programmes/atmel/studio/7.0/toolchain/avr32/avr32-gnu-toolchain/bin/../lib/gcc/avr32/4.4.7/../../../../avr32/lib/ucr3fp\libc.a(lib_a-impure.o)
 .text          0x8003ac24        0x0 d:/programmes/atmel/studio/7.0/toolchain/avr32/avr32-gnu-toolchain/bin/../lib/gcc/avr32/4.4.7/../../../../avr32/lib/ucr3fp\libc.a(lib_a-malloc.o)
 .text.free     0x8003ac24       0x18 d:/programmes/atmel/studio/7.0/toolchain/avr32/avr32-gnu-toolchain/bin/../lib/gcc/avr32/4.4.7/../../../../avr32/lib/ucr3fp\libc.a(lib_a-malloc.o)
                0x8003ac24                free
 .text.malloc   0x8003ac3c       0x18 d:/programmes/atmel/studio/7.0/toolchain/avr32/avr32-gnu-toolchain/bin/../lib/gcc/avr32/4.4.7/../../../../avr32/lib/ucr3fp\libc.a(lib_a-malloc.o)
                0x8003ac3c                malloc
 .text          0x8003ac54        0x0 d:/programmes/atmel/studio/7.0/toolchain/avr32/avr32-gnu-toolchain/bin/../lib/gcc/avr32/4.4.7/../../../../avr32/lib/ucr3fp\libc.a(lib_a-mallocr.o)
 .text._malloc_r
                0x8003ac54      0x450 d:/programmes/atmel/studio/7.0/toolchain/avr32/avr32-gnu-toolchain/bin/../lib/gcc/avr32/4.4.7/../../../../avr32/lib/ucr3fp\libc.a(lib_a-mallocr.o)
                0x8003ac54                _malloc_r
 .text          0x8003b0a4      0x148 d:/programmes/atmel/studio/7.0/toolchain/avr32/avr32-gnu-toolchain/bin/../lib/gcc/avr32/4.4.7/../../../../avr32/lib/ucr3fp\libc.a(lib_a-memcpy.o)
                0x8003b0a4                memcpy
 .text          0x8003b1ec        0x0 d:/programmes/atmel/studio/7.0/toolchain/avr32/avr32-gnu-toolchain/bin/../lib/gcc/avr32/4.4.7/../../../../avr32/lib/ucr3fp\libc.a(lib_a-memset.o)
 .text.memset   0x8003b1ec        0xe d:/programmes/atmel/studio/7.0/toolchain/avr32/avr32-gnu-toolchain/bin/../lib/gcc/avr32/4.4.7/../../../../avr32/lib/ucr3fp\libc.a(lib_a-memset.o)
                0x8003b1ec                memset
 .text          0x8003b1fa        0x0 d:/programmes/atmel/studio/7.0/toolchain/avr32/avr32-gnu-toolchain/bin/../lib/gcc/avr32/4.4.7/../../../../avr32/lib/ucr3fp\libc.a(lib_a-mlock.o)
 .text.__malloc_lock
                0x8003b1fa        0x2 d:/programmes/atmel/studio/7.0/toolchain/avr32/avr32-gnu-toolchain/bin/../lib/gcc/avr32/4.4.7/../../../../avr32/lib/ucr3fp\libc.a(lib_a-mlock.o)
                0x8003b1fa                __malloc_lock
 .text.__malloc_unlock
                0x8003b1fc        0x2 d:/programmes/atmel/studio/7.0/toolchain/avr32/avr32-gnu-toolchain/bin/../lib/gcc/avr32/4.4.7/../../../../avr32/lib/ucr3fp\libc.a(lib_a-mlock.o)
                0x8003b1fc                __malloc_unlock
 .text          0x8003b1fe        0x0 d:/programmes/atmel/studio/7.0/toolchain/avr32/avr32-gnu-toolchain/bin/../lib/gcc/avr32/4.4.7/../../../../avr32/lib/ucr3fp\libc.a(lib_a-rand.o)
 *fill*         0x8003b1fe        0x2 d703d703
 .text.rand     0x8003b200       0x84 d:/programmes/atmel/studio/7.0/toolchain/avr32/avr32-gnu-toolchain/bin/../lib/gcc/avr32/4.4.7/../../../../avr32/lib/ucr3fp\libc.a(lib_a-rand.o)
                0x8003b200                rand
 .text.srand    0x8003b284       0x58 d:/programmes/atmel/studio/7.0/toolchain/avr32/avr32-gnu-toolchain/bin/../lib/gcc/avr32/4.4.7/../../../../avr32/lib/ucr3fp\libc.a(lib_a-rand.o)
                0x8003b284                srand
 .text          0x8003b2dc        0x0 d:/programmes/atmel/studio/7.0/toolchain/avr32/avr32-gnu-toolchain/bin/../lib/gcc/avr32/4.4.7/../../../../avr32/lib/ucr3fp\libc.a(lib_a-sbrkr.o)
 .text._sbrk_r  0x8003b2dc       0x28 d:/programmes/atmel/studio/7.0/toolchain/avr32/avr32-gnu-toolchain/bin/../lib/gcc/avr32/4.4.7/../../../../avr32/lib/ucr3fp\libc.a(lib_a-sbrkr.o)
                0x8003b2dc                _sbrk_r
 .text          0x8003b304        0x0 d:/programmes/atmel/studio/7.0/toolchain/avr32/avr32-gnu-toolchain/bin/../lib/gcc/avr32/4.4.7/../../../../avr32/lib/ucr3fp\libc.a(lib_a-snprintf.o)
 .text.snprintf
                0x8003b304       0x64 d:/programmes/atmel/studio/7.0/toolchain/avr32/avr32-gnu-toolchain/bin/../lib/gcc/avr32/4.4.7/../../../../avr32/lib/ucr3fp\libc.a(lib_a-snprintf.o)
                0x8003b304                snprintf
 .text._snprintf_r
                0x8003b368       0x60 d:/programmes/atmel/studio/7.0/toolchain/avr32/avr32-gnu-toolchain/bin/../lib/gcc/avr32/4.4.7/../../../../avr32/lib/ucr3fp\libc.a(lib_a-snprintf.o)
                0x8003b368                _snprintf_r
 .text          0x8003b3c8        0x0 d:/programmes/atmel/studio/7.0/toolchain/avr32/avr32-gnu-toolchain/bin/../lib/gcc/avr32/4.4.7/../../../../avr32/lib/ucr3fp\libc.a(lib_a-strcpy.o)
 .text.strcpy   0x8003b3c8       0x12 d:/programmes/atmel/studio/7.0/toolchain/avr32/avr32-gnu-toolchain/bin/../lib/gcc/avr32/4.4.7/../../../../avr32/lib/ucr3fp\libc.a(lib_a-strcpy.o)
                0x8003b3c8                strcpy
 .text          0x8003b3da        0x0 d:/programmes/atmel/studio/7.0/toolchain/avr32/avr32-gnu-toolchain/bin/../lib/gcc/avr32/4.4.7/../../../../avr32/lib/ucr3fp\libc.a(lib_a-strlen.o)
 .text.strlen   0x8003b3da       0x16 d:/programmes/atmel/studio/7.0/toolchain/avr32/avr32-gnu-toolchain/bin/../lib/gcc/avr32/4.4.7/../../../../avr32/lib/ucr3fp\libc.a(lib_a-strlen.o)
                0x8003b3da                strlen
 .text          0x8003b3f0        0x0 d:/programmes/atmel/studio/7.0/toolchain/avr32/avr32-gnu-toolchain/bin/../lib/gcc/avr32/4.4.7/../../../../avr32/lib/ucr3fp\libc.a(lib_a-syscalls.o)
 .text._init_startup
                0x8003b3f0        0x2 d:/programmes/atmel/studio/7.0/toolchain/avr32/avr32-gnu-toolchain/bin/../lib/gcc/avr32/4.4.7/../../../../avr32/lib/ucr3fp\libc.a(lib_a-syscalls.o)
                0x8003b3f0                _init_startup
 .text._init_argv
                0x8003b3f2        0xa d:/programmes/atmel/studio/7.0/toolchain/avr32/avr32-gnu-toolchain/bin/../lib/gcc/avr32/4.4.7/../../../../avr32/lib/ucr3fp\libc.a(lib_a-syscalls.o)
                0x8003b3f2                _init_argv
 .text._exit    0x8003b3fc        0xa d:/programmes/atmel/studio/7.0/toolchain/avr32/avr32-gnu-toolchain/bin/../lib/gcc/avr32/4.4.7/../../../../avr32/lib/ucr3fp\libc.a(lib_a-syscalls.o)
                0x8003b3fc                _exit
 *fill*         0x8003b406        0x2 d703d703
 .text._open    0x8003b408       0x18 d:/programmes/atmel/studio/7.0/toolchain/avr32/avr32-gnu-toolchain/bin/../lib/gcc/avr32/4.4.7/../../../../avr32/lib/ucr3fp\libc.a(lib_a-syscalls.o)
                0x8003b408                _open
 .text._close   0x8003b420       0x18 d:/programmes/atmel/studio/7.0/toolchain/avr32/avr32-gnu-toolchain/bin/../lib/gcc/avr32/4.4.7/../../../../avr32/lib/ucr3fp\libc.a(lib_a-syscalls.o)
                0x8003b420                _close
 .text._lseek   0x8003b438       0x18 d:/programmes/atmel/studio/7.0/toolchain/avr32/avr32-gnu-toolchain/bin/../lib/gcc/avr32/4.4.7/../../../../avr32/lib/ucr3fp\libc.a(lib_a-syscalls.o)
                0x8003b438                _lseek
 .text._read    0x8003b450       0x18 d:/programmes/atmel/studio/7.0/toolchain/avr32/avr32-gnu-toolchain/bin/../lib/gcc/avr32/4.4.7/../../../../avr32/lib/ucr3fp\libc.a(lib_a-syscalls.o)
 .text._write   0x8003b468       0x18 d:/programmes/atmel/studio/7.0/toolchain/avr32/avr32-gnu-toolchain/bin/../lib/gcc/avr32/4.4.7/../../../../avr32/lib/ucr3fp\libc.a(lib_a-syscalls.o)
 .text.isatty   0x8003b480       0x18 d:/programmes/atmel/studio/7.0/toolchain/avr32/avr32-gnu-toolchain/bin/../lib/gcc/avr32/4.4.7/../../../../avr32/lib/ucr3fp\libc.a(lib_a-syscalls.o)
                0x8003b480                isatty
 .text._fstat_host
                0x8003b498       0x18 d:/programmes/atmel/studio/7.0/toolchain/avr32/avr32-gnu-toolchain/bin/../lib/gcc/avr32/4.4.7/../../../../avr32/lib/ucr3fp\libc.a(lib_a-syscalls.o)
                0x8003b498                _fstat_host
 .text._stat_host
                0x8003b4b0       0x18 d:/programmes/atmel/studio/7.0/toolchain/avr32/avr32-gnu-toolchain/bin/../lib/gcc/avr32/4.4.7/../../../../avr32/lib/ucr3fp\libc.a(lib_a-syscalls.o)
                0x8003b4b0                _stat_host
 .text._fstat   0x8003b4c8       0x50 d:/programmes/atmel/studio/7.0/toolchain/avr32/avr32-gnu-toolchain/bin/../lib/gcc/avr32/4.4.7/../../../../avr32/lib/ucr3fp\libc.a(lib_a-syscalls.o)
                0x8003b4c8                _fstat
 .text._stat    0x8003b518       0x50 d:/programmes/atmel/studio/7.0/toolchain/avr32/avr32-gnu-toolchain/bin/../lib/gcc/avr32/4.4.7/../../../../avr32/lib/ucr3fp\libc.a(lib_a-syscalls.o)
                0x8003b518                _stat
 .text._gettimeofday_host
                0x8003b568       0x18 d:/programmes/atmel/studio/7.0/toolchain/avr32/avr32-gnu-toolchain/bin/../lib/gcc/avr32/4.4.7/../../../../avr32/lib/ucr3fp\libc.a(lib_a-syscalls.o)
                0x8003b568                _gettimeofday_host
 .text._gettimeofday
                0x8003b580       0x24 d:/programmes/atmel/studio/7.0/toolchain/avr32/avr32-gnu-toolchain/bin/../lib/gcc/avr32/4.4.7/../../../../avr32/lib/ucr3fp\libc.a(lib_a-syscalls.o)
                0x8003b580                _gettimeofday
 .text._unlink  0x8003b5a4       0x18 d:/programmes/atmel/studio/7.0/toolchain/avr32/avr32-gnu-toolchain/bin/../lib/gcc/avr32/4.4.7/../../../../avr32/lib/ucr3fp\libc.a(lib_a-syscalls.o)
                0x8003b5a4                _unlink
 .text._system  0x8003b5bc       0x18 d:/programmes/atmel/studio/7.0/toolchain/avr32/avr32-gnu-toolchain/bin/../lib/gcc/avr32/4.4.7/../../../../avr32/lib/ucr3fp\libc.a(lib_a-syscalls.o)
                0x8003b5bc                _system
 .text._execve  0x8003b5d4        0x2 d:/programmes/atmel/studio/7.0/toolchain/avr32/avr32-gnu-toolchain/bin/../lib/gcc/avr32/4.4.7/../../../../avr32/lib/ucr3fp\libc.a(lib_a-syscalls.o)
                0x8003b5d4                _execve
 .text._fork    0x8003b5d6        0x2 d:/programmes/atmel/studio/7.0/toolchain/avr32/avr32-gnu-toolchain/bin/../lib/gcc/avr32/4.4.7/../../../../avr32/lib/ucr3fp\libc.a(lib_a-syscalls.o)
                0x8003b5d6                _fork
 .text._wait    0x8003b5d8        0x2 d:/programmes/atmel/studio/7.0/toolchain/avr32/avr32-gnu-toolchain/bin/../lib/gcc/avr32/4.4.7/../../../../avr32/lib/ucr3fp\libc.a(lib_a-syscalls.o)
                0x8003b5d8                _wait
 .text.sigfillset
                0x8003b5da        0x2 d:/programmes/atmel/studio/7.0/toolchain/avr32/avr32-gnu-toolchain/bin/../lib/gcc/avr32/4.4.7/../../../../avr32/lib/ucr3fp\libc.a(lib_a-syscalls.o)
                0x8003b5da                sigfillset
 .text.sigprocmask
                0x8003b5dc        0x2 d:/programmes/atmel/studio/7.0/toolchain/avr32/avr32-gnu-toolchain/bin/../lib/gcc/avr32/4.4.7/../../../../avr32/lib/ucr3fp\libc.a(lib_a-syscalls.o)
                0x8003b5dc                sigprocmask
 .text._fcntl   0x8003b5de        0x2 d:/programmes/atmel/studio/7.0/toolchain/avr32/avr32-gnu-toolchain/bin/../lib/gcc/avr32/4.4.7/../../../../avr32/lib/ucr3fp\libc.a(lib_a-syscalls.o)
                0x8003b5de                _fcntl
 .text._link    0x8003b5e0        0x2 d:/programmes/atmel/studio/7.0/toolchain/avr32/avr32-gnu-toolchain/bin/../lib/gcc/avr32/4.4.7/../../../../avr32/lib/ucr3fp\libc.a(lib_a-syscalls.o)
                0x8003b5e0                _link
 .text._kill    0x8003b5e2        0x2 d:/programmes/atmel/studio/7.0/toolchain/avr32/avr32-gnu-toolchain/bin/../lib/gcc/avr32/4.4.7/../../../../avr32/lib/ucr3fp\libc.a(lib_a-syscalls.o)
                0x8003b5e2                _kill
 .text._getpid  0x8003b5e4        0x2 d:/programmes/atmel/studio/7.0/toolchain/avr32/avr32-gnu-toolchain/bin/../lib/gcc/avr32/4.4.7/../../../../avr32/lib/ucr3fp\libc.a(lib_a-syscalls.o)
                0x8003b5e4                _getpid
 *fill*         0x8003b5e6        0x2 d703d703
 .text._sbrk    0x8003b5e8       0x40 d:/programmes/atmel/studio/7.0/toolchain/avr32/avr32-gnu-toolchain/bin/../lib/gcc/avr32/4.4.7/../../../../avr32/lib/ucr3fp\libc.a(lib_a-syscalls.o)
                0x8003b5e8                _sbrk
 .text._times   0x8003b628       0x12 d:/programmes/atmel/studio/7.0/toolchain/avr32/avr32-gnu-toolchain/bin/../lib/gcc/avr32/4.4.7/../../../../avr32/lib/ucr3fp\libc.a(lib_a-syscalls.o)
                0x8003b628                _times
 .text          0x8003b63a        0x0 d:/programmes/atmel/studio/7.0/toolchain/avr32/avr32-gnu-toolchain/bin/../lib/gcc/avr32/4.4.7/../../../../avr32/lib/ucr3fp\libc.a(lib_a-vfprintf.o)
 *fill*         0x8003b63a        0x2 d703d703
 .text.get_arg  0x8003b63c      0x324 d:/programmes/atmel/studio/7.0/toolchain/avr32/avr32-gnu-toolchain/bin/../lib/gcc/avr32/4.4.7/../../../../avr32/lib/ucr3fp\libc.a(lib_a-vfprintf.o)
 .text.__sprint_r
                0x8003b960       0x20 d:/programmes/atmel/studio/7.0/toolchain/avr32/avr32-gnu-toolchain/bin/../lib/gcc/avr32/4.4.7/../../../../avr32/lib/ucr3fp\libc.a(lib_a-vfprintf.o)
 .text._vfprintf_r
                0x8003b980     0x1f9c d:/programmes/atmel/studio/7.0/toolchain/avr32/avr32-gnu-toolchain/bin/../lib/gcc/avr32/4.4.7/../../../../avr32/lib/ucr3fp\libc.a(lib_a-vfprintf.o)
                0x8003b980                _vfprintf_r
 .text.vfprintf
                0x8003d91c       0x1c d:/programmes/atmel/studio/7.0/toolchain/avr32/avr32-gnu-toolchain/bin/../lib/gcc/avr32/4.4.7/../../../../avr32/lib/ucr3fp\libc.a(lib_a-vfprintf.o)
                0x8003d91c                vfprintf
 .text          0x8003d938        0x0 d:/programmes/atmel/studio/7.0/toolchain/avr32/avr32-gnu-toolchain/bin/../lib/gcc/avr32/4.4.7/../../../../avr32/lib/ucr3fp\libc.a(lib_a-wsetup.o)
 .text.__swsetup_r
                0x8003d938       0xe8 d:/programmes/atmel/studio/7.0/toolchain/avr32/avr32-gnu-toolchain/bin/../lib/gcc/avr32/4.4.7/../../../../avr32/lib/ucr3fp\libc.a(lib_a-wsetup.o)
                0x8003d938                __swsetup_r
 .text          0x8003da20        0x0 d:/programmes/atmel/studio/7.0/toolchain/avr32/avr32-gnu-toolchain/bin/../lib/gcc/avr32/4.4.7/../../../../avr32/lib/ucr3fp\libc.a(lib_a-dtoa.o)
 .text.quorem   0x8003da20      0x124 d:/programmes/atmel/studio/7.0/toolchain/avr32/avr32-gnu-toolchain/bin/../lib/gcc/avr32/4.4.7/../../../../avr32/lib/ucr3fp\libc.a(lib_a-dtoa.o)
 .text._dtoa_r  0x8003db44      0xc90 d:/programmes/atmel/studio/7.0/toolchain/avr32/avr32-gnu-toolchain/bin/../lib/gcc/avr32/4.4.7/../../../../avr32/lib/ucr3fp\libc.a(lib_a-dtoa.o)
                0x8003db44                _dtoa_r
 .text          0x8003e7d4        0x0 d:/programmes/atmel/studio/7.0/toolchain/avr32/avr32-gnu-toolchain/bin/../lib/gcc/avr32/4.4.7/../../../../avr32/lib/ucr3fp\libc.a(lib_a-fflush.o)
 .text._fflush_r
                0x8003e7d4      0x118 d:/programmes/atmel/studio/7.0/toolchain/avr32/avr32-gnu-toolchain/bin/../lib/gcc/avr32/4.4.7/../../../../avr32/lib/ucr3fp\libc.a(lib_a-fflush.o)
                0x8003e7d4                _fflush_r
 .text.fflush   0x8003e8ec       0x30 d:/programmes/atmel/studio/7.0/toolchain/avr32/avr32-gnu-toolchain/bin/../lib/gcc/avr32/4.4.7/../../../../avr32/lib/ucr3fp\libc.a(lib_a-fflush.o)
                0x8003e8ec                fflush
 .text          0x8003e91c        0x0 d:/programmes/atmel/studio/7.0/toolchain/avr32/avr32-gnu-toolchain/bin/../lib/gcc/avr32/4.4.7/../../../../avr32/lib/ucr3fp\libc.a(lib_a-findfp.o)
 .text.__sfp_lock_acquire
                0x8003e91c        0x2 d:/programmes/atmel/studio/7.0/toolchain/avr32/avr32-gnu-toolchain/bin/../lib/gcc/avr32/4.4.7/../../../../avr32/lib/ucr3fp\libc.a(lib_a-findfp.o)
                0x8003e91c                __sfp_lock_acquire
 .text.__sfp_lock_release
                0x8003e91e        0x2 d:/programmes/atmel/studio/7.0/toolchain/avr32/avr32-gnu-toolchain/bin/../lib/gcc/avr32/4.4.7/../../../../avr32/lib/ucr3fp\libc.a(lib_a-findfp.o)
                0x8003e91e                __sfp_lock_release
 .text.__sinit_lock_acquire
                0x8003e920        0x2 d:/programmes/atmel/studio/7.0/toolchain/avr32/avr32-gnu-toolchain/bin/../lib/gcc/avr32/4.4.7/../../../../avr32/lib/ucr3fp\libc.a(lib_a-findfp.o)
                0x8003e920                __sinit_lock_acquire
 .text.__sinit_lock_release
                0x8003e922        0x2 d:/programmes/atmel/studio/7.0/toolchain/avr32/avr32-gnu-toolchain/bin/../lib/gcc/avr32/4.4.7/../../../../avr32/lib/ucr3fp\libc.a(lib_a-findfp.o)
                0x8003e922                __sinit_lock_release
 .text.__fp_lock
                0x8003e924        0x2 d:/programmes/atmel/studio/7.0/toolchain/avr32/avr32-gnu-toolchain/bin/../lib/gcc/avr32/4.4.7/../../../../avr32/lib/ucr3fp\libc.a(lib_a-findfp.o)
 .text.__fp_unlock
                0x8003e926        0x2 d:/programmes/atmel/studio/7.0/toolchain/avr32/avr32-gnu-toolchain/bin/../lib/gcc/avr32/4.4.7/../../../../avr32/lib/ucr3fp\libc.a(lib_a-findfp.o)
 .text.__fp_unlock_all
                0x8003e928       0x1c d:/programmes/atmel/studio/7.0/toolchain/avr32/avr32-gnu-toolchain/bin/../lib/gcc/avr32/4.4.7/../../../../avr32/lib/ucr3fp\libc.a(lib_a-findfp.o)
                0x8003e928                __fp_unlock_all
 .text.__fp_lock_all
                0x8003e944       0x1c d:/programmes/atmel/studio/7.0/toolchain/avr32/avr32-gnu-toolchain/bin/../lib/gcc/avr32/4.4.7/../../../../avr32/lib/ucr3fp\libc.a(lib_a-findfp.o)
                0x8003e944                __fp_lock_all
 .text._cleanup_r
                0x8003e960       0x14 d:/programmes/atmel/studio/7.0/toolchain/avr32/avr32-gnu-toolchain/bin/../lib/gcc/avr32/4.4.7/../../../../avr32/lib/ucr3fp\libc.a(lib_a-findfp.o)
                0x8003e960                _cleanup_r
 .text._cleanup
                0x8003e974       0x14 d:/programmes/atmel/studio/7.0/toolchain/avr32/avr32-gnu-toolchain/bin/../lib/gcc/avr32/4.4.7/../../../../avr32/lib/ucr3fp\libc.a(lib_a-findfp.o)
                0x8003e974                _cleanup
 .text.__sfmoreglue
                0x8003e988       0x30 d:/programmes/atmel/studio/7.0/toolchain/avr32/avr32-gnu-toolchain/bin/../lib/gcc/avr32/4.4.7/../../../../avr32/lib/ucr3fp\libc.a(lib_a-findfp.o)
                0x8003e988                __sfmoreglue
 .text.__sfp    0x8003e9b8       0x7c d:/programmes/atmel/studio/7.0/toolchain/avr32/avr32-gnu-toolchain/bin/../lib/gcc/avr32/4.4.7/../../../../avr32/lib/ucr3fp\libc.a(lib_a-findfp.o)
                0x8003e9b8                __sfp
 .text.__sinit  0x8003ea34       0xb0 d:/programmes/atmel/studio/7.0/toolchain/avr32/avr32-gnu-toolchain/bin/../lib/gcc/avr32/4.4.7/../../../../avr32/lib/ucr3fp\libc.a(lib_a-findfp.o)
                0x8003ea34                __sinit
 .text          0x8003eae4        0x0 d:/programmes/atmel/studio/7.0/toolchain/avr32/avr32-gnu-toolchain/bin/../lib/gcc/avr32/4.4.7/../../../../avr32/lib/ucr3fp\libc.a(lib_a-freer.o)
 .text._malloc_trim_r
                0x8003eae4       0xa8 d:/programmes/atmel/studio/7.0/toolchain/avr32/avr32-gnu-toolchain/bin/../lib/gcc/avr32/4.4.7/../../../../avr32/lib/ucr3fp\libc.a(lib_a-freer.o)
                0x8003eae4                _malloc_trim_r
 .text._free_r  0x8003eb8c      0x1a0 d:/programmes/atmel/studio/7.0/toolchain/avr32/avr32-gnu-toolchain/bin/../lib/gcc/avr32/4.4.7/../../../../avr32/lib/ucr3fp\libc.a(lib_a-freer.o)
                0x8003eb8c                _free_r
 .text          0x8003ed2c        0x0 d:/programmes/atmel/studio/7.0/toolchain/avr32/avr32-gnu-toolchain/bin/../lib/gcc/avr32/4.4.7/../../../../avr32/lib/ucr3fp\libc.a(lib_a-fvwrite.o)
 .text.__sfvwrite_r
                0x8003ed2c      0x2c4 d:/programmes/atmel/studio/7.0/toolchain/avr32/avr32-gnu-toolchain/bin/../lib/gcc/avr32/4.4.7/../../../../avr32/lib/ucr3fp\libc.a(lib_a-fvwrite.o)
                0x8003ed2c                __sfvwrite_r
 .text          0x8003eff0        0x0 d:/programmes/atmel/studio/7.0/toolchain/avr32/avr32-gnu-toolchain/bin/../lib/gcc/avr32/4.4.7/../../../../avr32/lib/ucr3fp\libc.a(lib_a-fwalk.o)
 .text._fwalk_reent
                0x8003eff0       0x58 d:/programmes/atmel/studio/7.0/toolchain/avr32/avr32-gnu-toolchain/bin/../lib/gcc/avr32/4.4.7/../../../../avr32/lib/ucr3fp\libc.a(lib_a-fwalk.o)
                0x8003eff0                _fwalk_reent
 .text._fwalk   0x8003f048       0x54 d:/programmes/atmel/studio/7.0/toolchain/avr32/avr32-gnu-toolchain/bin/../lib/gcc/avr32/4.4.7/../../../../avr32/lib/ucr3fp\libc.a(lib_a-fwalk.o)
                0x8003f048                _fwalk
 .text          0x8003f09c        0x0 d:/programmes/atmel/studio/7.0/toolchain/avr32/avr32-gnu-toolchain/bin/../lib/gcc/avr32/4.4.7/../../../../avr32/lib/ucr3fp\libc.a(lib_a-locale.o)
 .text.__locale_charset
                0x8003f09c        0xc d:/programmes/atmel/studio/7.0/toolchain/avr32/avr32-gnu-toolchain/bin/../lib/gcc/avr32/4.4.7/../../../../avr32/lib/ucr3fp\libc.a(lib_a-locale.o)
                0x8003f09c                __locale_charset
 .text._localeconv_r
                0x8003f0a8        0x8 d:/programmes/atmel/studio/7.0/toolchain/avr32/avr32-gnu-toolchain/bin/../lib/gcc/avr32/4.4.7/../../../../avr32/lib/ucr3fp\libc.a(lib_a-locale.o)
                0x8003f0a8                _localeconv_r
 .text.localeconv
                0x8003f0b0        0x8 d:/programmes/atmel/studio/7.0/toolchain/avr32/avr32-gnu-toolchain/bin/../lib/gcc/avr32/4.4.7/../../../../avr32/lib/ucr3fp\libc.a(lib_a-locale.o)
                0x8003f0b0                localeconv
 .text._setlocale_r
                0x8003f0b8       0x3c d:/programmes/atmel/studio/7.0/toolchain/avr32/avr32-gnu-toolchain/bin/../lib/gcc/avr32/4.4.7/../../../../avr32/lib/ucr3fp\libc.a(lib_a-locale.o)
                0x8003f0b8                _setlocale_r
 .text.setlocale
                0x8003f0f4       0x18 d:/programmes/atmel/studio/7.0/toolchain/avr32/avr32-gnu-toolchain/bin/../lib/gcc/avr32/4.4.7/../../../../avr32/lib/ucr3fp\libc.a(lib_a-locale.o)
                0x8003f0f4                setlocale
 .text          0x8003f10c        0x0 d:/programmes/atmel/studio/7.0/toolchain/avr32/avr32-gnu-toolchain/bin/../lib/gcc/avr32/4.4.7/../../../../avr32/lib/ucr3fp\libc.a(lib_a-makebuf.o)
 .text.__smakebuf_r
                0x8003f10c       0xcc d:/programmes/atmel/studio/7.0/toolchain/avr32/avr32-gnu-toolchain/bin/../lib/gcc/avr32/4.4.7/../../../../avr32/lib/ucr3fp\libc.a(lib_a-makebuf.o)
                0x8003f10c                __smakebuf_r
 .text          0x8003f1d8        0x0 d:/programmes/atmel/studio/7.0/toolchain/avr32/avr32-gnu-toolchain/bin/../lib/gcc/avr32/4.4.7/../../../../avr32/lib/ucr3fp\libc.a(lib_a-memchr.o)
 .text.memchr   0x8003f1d8       0x16 d:/programmes/atmel/studio/7.0/toolchain/avr32/avr32-gnu-toolchain/bin/../lib/gcc/avr32/4.4.7/../../../../avr32/lib/ucr3fp\libc.a(lib_a-memchr.o)
                0x8003f1d8                memchr
 .text          0x8003f1ee        0x0 d:/programmes/atmel/studio/7.0/toolchain/avr32/avr32-gnu-toolchain/bin/../lib/gcc/avr32/4.4.7/../../../../avr32/lib/ucr3fp\libc.a(lib_a-memmove.o)
 .text.memmove  0x8003f1ee       0x3e d:/programmes/atmel/studio/7.0/toolchain/avr32/avr32-gnu-toolchain/bin/../lib/gcc/avr32/4.4.7/../../../../avr32/lib/ucr3fp\libc.a(lib_a-memmove.o)
                0x8003f1ee                memmove
 .text          0x8003f22c        0x0 d:/programmes/atmel/studio/7.0/toolchain/avr32/avr32-gnu-toolchain/bin/../lib/gcc/avr32/4.4.7/../../../../avr32/lib/ucr3fp\libc.a(lib_a-mprec.o)
 .text.__hi0bits
                0x8003f22c       0x60 d:/programmes/atmel/studio/7.0/toolchain/avr32/avr32-gnu-toolchain/bin/../lib/gcc/avr32/4.4.7/../../../../avr32/lib/ucr3fp\libc.a(lib_a-mprec.o)
                0x8003f22c                __hi0bits
 .text.__lo0bits
                0x8003f28c       0x8e d:/programmes/atmel/studio/7.0/toolchain/avr32/avr32-gnu-toolchain/bin/../lib/gcc/avr32/4.4.7/../../../../avr32/lib/ucr3fp\libc.a(lib_a-mprec.o)
                0x8003f28c                __lo0bits
 .text.__mcmp   0x8003f31a       0x32 d:/programmes/atmel/studio/7.0/toolchain/avr32/avr32-gnu-toolchain/bin/../lib/gcc/avr32/4.4.7/../../../../avr32/lib/ucr3fp\libc.a(lib_a-mprec.o)
                0x8003f31a                __mcmp
 .text.__ulp    0x8003f34c       0x48 d:/programmes/atmel/studio/7.0/toolchain/avr32/avr32-gnu-toolchain/bin/../lib/gcc/avr32/4.4.7/../../../../avr32/lib/ucr3fp\libc.a(lib_a-mprec.o)
                0x8003f34c                __ulp
 .text.__b2d    0x8003f394       0xa0 d:/programmes/atmel/studio/7.0/toolchain/avr32/avr32-gnu-toolchain/bin/../lib/gcc/avr32/4.4.7/../../../../avr32/lib/ucr3fp\libc.a(lib_a-mprec.o)
                0x8003f394                __b2d
 .text.__ratio  0x8003f434       0x5c d:/programmes/atmel/studio/7.0/toolchain/avr32/avr32-gnu-toolchain/bin/../lib/gcc/avr32/4.4.7/../../../../avr32/lib/ucr3fp\libc.a(lib_a-mprec.o)
                0x8003f434                __ratio
 .text._mprec_log10
                0x8003f490       0x34 d:/programmes/atmel/studio/7.0/toolchain/avr32/avr32-gnu-toolchain/bin/../lib/gcc/avr32/4.4.7/../../../../avr32/lib/ucr3fp\libc.a(lib_a-mprec.o)
                0x8003f490                _mprec_log10
 .text.__copybits
                0x8003f4c4       0x2e d:/programmes/atmel/studio/7.0/toolchain/avr32/avr32-gnu-toolchain/bin/../lib/gcc/avr32/4.4.7/../../../../avr32/lib/ucr3fp\libc.a(lib_a-mprec.o)
                0x8003f4c4                __copybits
 .text.__any_on
                0x8003f4f2       0x4c d:/programmes/atmel/studio/7.0/toolchain/avr32/avr32-gnu-toolchain/bin/../lib/gcc/avr32/4.4.7/../../../../avr32/lib/ucr3fp\libc.a(lib_a-mprec.o)
                0x8003f4f2                __any_on
 *fill*         0x8003f53e        0x2 d703d703
 .text._Bfree   0x8003f540       0x38 d:/programmes/atmel/studio/7.0/toolchain/avr32/avr32-gnu-toolchain/bin/../lib/gcc/avr32/4.4.7/../../../../avr32/lib/ucr3fp\libc.a(lib_a-mprec.o)
                0x8003f540                _Bfree
 .text._Balloc  0x8003f578       0x78 d:/programmes/atmel/studio/7.0/toolchain/avr32/avr32-gnu-toolchain/bin/../lib/gcc/avr32/4.4.7/../../../../avr32/lib/ucr3fp\libc.a(lib_a-mprec.o)
                0x8003f578                _Balloc
 .text.__d2b    0x8003f5f0       0xb4 d:/programmes/atmel/studio/7.0/toolchain/avr32/avr32-gnu-toolchain/bin/../lib/gcc/avr32/4.4.7/../../../../avr32/lib/ucr3fp\libc.a(lib_a-mprec.o)
                0x8003f5f0                __d2b
 .text.__mdiff  0x8003f6a4       0xd8 d:/programmes/atmel/studio/7.0/toolchain/avr32/avr32-gnu-toolchain/bin/../lib/gcc/avr32/4.4.7/../../../../avr32/lib/ucr3fp\libc.a(lib_a-mprec.o)
                0x8003f6a4                __mdiff
 .text.__lshift
                0x8003f77c       0x94 d:/programmes/atmel/studio/7.0/toolchain/avr32/avr32-gnu-toolchain/bin/../lib/gcc/avr32/4.4.7/../../../../avr32/lib/ucr3fp\libc.a(lib_a-mprec.o)
                0x8003f77c                __lshift
 .text.__multiply
                0x8003f810      0x108 d:/programmes/atmel/studio/7.0/toolchain/avr32/avr32-gnu-toolchain/bin/../lib/gcc/avr32/4.4.7/../../../../avr32/lib/ucr3fp\libc.a(lib_a-mprec.o)
                0x8003f810                __multiply
 .text.__i2b    0x8003f918       0x18 d:/programmes/atmel/studio/7.0/toolchain/avr32/avr32-gnu-toolchain/bin/../lib/gcc/avr32/4.4.7/../../../../avr32/lib/ucr3fp\libc.a(lib_a-mprec.o)
                0x8003f918                __i2b
 .text.__multadd
                0x8003f930       0x88 d:/programmes/atmel/studio/7.0/toolchain/avr32/avr32-gnu-toolchain/bin/../lib/gcc/avr32/4.4.7/../../../../avr32/lib/ucr3fp\libc.a(lib_a-mprec.o)
                0x8003f930                __multadd
 .text.__pow5mult
                0x8003f9b8       0xac d:/programmes/atmel/studio/7.0/toolchain/avr32/avr32-gnu-toolchain/bin/../lib/gcc/avr32/4.4.7/../../../../avr32/lib/ucr3fp\libc.a(lib_a-mprec.o)
                0x8003f9b8                __pow5mult
 .text.__s2b    0x8003fa64       0x84 d:/programmes/atmel/studio/7.0/toolchain/avr32/avr32-gnu-toolchain/bin/../lib/gcc/avr32/4.4.7/../../../../avr32/lib/ucr3fp\libc.a(lib_a-mprec.o)
                0x8003fa64                __s2b
 .text          0x8003fae8        0x0 d:/programmes/atmel/studio/7.0/toolchain/avr32/avr32-gnu-toolchain/bin/../lib/gcc/avr32/4.4.7/../../../../avr32/lib/ucr3fp\libc.a(lib_a-reallocr.o)
 .text._realloc_r
                0x8003fae8      0x2e0 d:/programmes/atmel/studio/7.0/toolchain/avr32/avr32-gnu-toolchain/bin/../lib/gcc/avr32/4.4.7/../../../../avr32/lib/ucr3fp\libc.a(lib_a-reallocr.o)
                0x8003fae8                _realloc_r
 .text          0x8003fdc8        0x0 d:/programmes/atmel/studio/7.0/toolchain/avr32/avr32-gnu-toolchain/bin/../lib/gcc/avr32/4.4.7/../../../../avr32/lib/ucr3fp\libc.a(lib_a-reent.o)
 .text._wrapup_reent
                0x8003fdc8       0x3c d:/programmes/atmel/studio/7.0/toolchain/avr32/avr32-gnu-toolchain/bin/../lib/gcc/avr32/4.4.7/../../../../avr32/lib/ucr3fp\libc.a(lib_a-reent.o)
                0x8003fdc8                _wrapup_reent
 .text.cleanup_glue
                0x8003fe04       0x24 d:/programmes/atmel/studio/7.0/toolchain/avr32/avr32-gnu-toolchain/bin/../lib/gcc/avr32/4.4.7/../../../../avr32/lib/ucr3fp\libc.a(lib_a-reent.o)
                0x8003fe04                cleanup_glue
 .text._reclaim_reent
                0x8003fe28       0xd4 d:/programmes/atmel/studio/7.0/toolchain/avr32/avr32-gnu-toolchain/bin/../lib/gcc/avr32/4.4.7/../../../../avr32/lib/ucr3fp\libc.a(lib_a-reent.o)
                0x8003fe28                _reclaim_reent
 .text          0x8003fefc        0x0 d:/programmes/atmel/studio/7.0/toolchain/avr32/avr32-gnu-toolchain/bin/../lib/gcc/avr32/4.4.7/../../../../avr32/lib/ucr3fp\libc.a(lib_a-s_isinfd.o)
 .text.__isinfd
                0x8003fefc       0x2a d:/programmes/atmel/studio/7.0/toolchain/avr32/avr32-gnu-toolchain/bin/../lib/gcc/avr32/4.4.7/../../../../avr32/lib/ucr3fp\libc.a(lib_a-s_isinfd.o)
                0x8003fefc                __isinfd
 .text          0x8003ff26        0x0 d:/programmes/atmel/studio/7.0/toolchain/avr32/avr32-gnu-toolchain/bin/../lib/gcc/avr32/4.4.7/../../../../avr32/lib/ucr3fp\libc.a(lib_a-stdio.o)
 *fill*         0x8003ff26        0x2 d703d703
 .text.__sclose
                0x8003ff28       0x10 d:/programmes/atmel/studio/7.0/toolchain/avr32/avr32-gnu-toolchain/bin/../lib/gcc/avr32/4.4.7/../../../../avr32/lib/ucr3fp\libc.a(lib_a-stdio.o)
                0x8003ff28                __sclose
 .text.__sseek  0x8003ff38       0x28 d:/programmes/atmel/studio/7.0/toolchain/avr32/avr32-gnu-toolchain/bin/../lib/gcc/avr32/4.4.7/../../../../avr32/lib/ucr3fp\libc.a(lib_a-stdio.o)
                0x8003ff38                __sseek
 .text.__swrite
                0x8003ff60       0x38 d:/programmes/atmel/studio/7.0/toolchain/avr32/avr32-gnu-toolchain/bin/../lib/gcc/avr32/4.4.7/../../../../avr32/lib/ucr3fp\libc.a(lib_a-stdio.o)
                0x8003ff60                __swrite
 .text.__sread  0x8003ff98       0x24 d:/programmes/atmel/studio/7.0/toolchain/avr32/avr32-gnu-toolchain/bin/../lib/gcc/avr32/4.4.7/../../../../avr32/lib/ucr3fp\libc.a(lib_a-stdio.o)
                0x8003ff98                __sread
 .text          0x8003ffbc       0xa8 d:/programmes/atmel/studio/7.0/toolchain/avr32/avr32-gnu-toolchain/bin/../lib/gcc/avr32/4.4.7/../../../../avr32/lib/ucr3fp\libc.a(lib_a-strcmp.o)
                0x8003ffbc                strcmp
 .text          0x80040064        0x0 d:/programmes/atmel/studio/7.0/toolchain/avr32/avr32-gnu-toolchain/bin/../lib/gcc/avr32/4.4.7/../../../../avr32/lib/ucr3fp\libc.a(lib_a-writer.o)
 .text._write_r
                0x80040064       0x2c d:/programmes/atmel/studio/7.0/toolchain/avr32/avr32-gnu-toolchain/bin/../lib/gcc/avr32/4.4.7/../../../../avr32/lib/ucr3fp\libc.a(lib_a-writer.o)
                0x80040064                _write_r
 .text          0x80040090        0x0 d:/programmes/atmel/studio/7.0/toolchain/avr32/avr32-gnu-toolchain/bin/../lib/gcc/avr32/4.4.7/../../../../avr32/lib/ucr3fp\libc.a(lib_a-callocr.o)
 .text._calloc_r
                0x80040090       0x60 d:/programmes/atmel/studio/7.0/toolchain/avr32/avr32-gnu-toolchain/bin/../lib/gcc/avr32/4.4.7/../../../../avr32/lib/ucr3fp\libc.a(lib_a-callocr.o)
                0x80040090                _calloc_r
 .text          0x800400f0        0x0 d:/programmes/atmel/studio/7.0/toolchain/avr32/avr32-gnu-toolchain/bin/../lib/gcc/avr32/4.4.7/../../../../avr32/lib/ucr3fp\libc.a(lib_a-closer.o)
 .text._close_r
                0x800400f0       0x28 d:/programmes/atmel/studio/7.0/toolchain/avr32/avr32-gnu-toolchain/bin/../lib/gcc/avr32/4.4.7/../../../../avr32/lib/ucr3fp\libc.a(lib_a-closer.o)
                0x800400f0                _close_r
 .text          0x80040118        0x0 d:/programmes/atmel/studio/7.0/toolchain/avr32/avr32-gnu-toolchain/bin/../lib/gcc/avr32/4.4.7/../../../../avr32/lib/ucr3fp\libc.a(lib_a-fclose.o)
 .text._fclose_r
                0x80040118       0xd0 d:/programmes/atmel/studio/7.0/toolchain/avr32/avr32-gnu-toolchain/bin/../lib/gcc/avr32/4.4.7/../../../../avr32/lib/ucr3fp\libc.a(lib_a-fclose.o)
                0x80040118                _fclose_r
 .text.fclose   0x800401e8       0x18 d:/programmes/atmel/studio/7.0/toolchain/avr32/avr32-gnu-toolchain/bin/../lib/gcc/avr32/4.4.7/../../../../avr32/lib/ucr3fp\libc.a(lib_a-fclose.o)
                0x800401e8                fclose
 .text          0x80040200        0x0 d:/programmes/atmel/studio/7.0/toolchain/avr32/avr32-gnu-toolchain/bin/../lib/gcc/avr32/4.4.7/../../../../avr32/lib/ucr3fp\libc.a(lib_a-fstatr.o)
 .text._fstat_r
                0x80040200       0x2c d:/programmes/atmel/studio/7.0/toolchain/avr32/avr32-gnu-toolchain/bin/../lib/gcc/avr32/4.4.7/../../../../avr32/lib/ucr3fp\libc.a(lib_a-fstatr.o)
                0x80040200                _fstat_r
 .text          0x8004022c        0x0 d:/programmes/atmel/studio/7.0/toolchain/avr32/avr32-gnu-toolchain/bin/../lib/gcc/avr32/4.4.7/../../../../avr32/lib/ucr3fp\libc.a(lib_a-lseekr.o)
 .text._lseek_r
                0x8004022c       0x2c d:/programmes/atmel/studio/7.0/toolchain/avr32/avr32-gnu-toolchain/bin/../lib/gcc/avr32/4.4.7/../../../../avr32/lib/ucr3fp\libc.a(lib_a-lseekr.o)
                0x8004022c                _lseek_r
 .text          0x80040258        0x0 d:/programmes/atmel/studio/7.0/toolchain/avr32/avr32-gnu-toolchain/bin/../lib/gcc/avr32/4.4.7/../../../../avr32/lib/ucr3fp\libc.a(lib_a-readr.o)
 .text._read_r  0x80040258       0x2c d:/programmes/atmel/studio/7.0/toolchain/avr32/avr32-gnu-toolchain/bin/../lib/gcc/avr32/4.4.7/../../../../avr32/lib/ucr3fp\libc.a(lib_a-readr.o)
                0x80040258                _read_r
 *(.text.*personality*)
 *(.gnu.warning)

.exception      0x80040400      0x200
 .exception     0x80040400      0x200 src/asf/avr32/drivers/intc/exception.o
                0x80040400                _evba
                0x8004053c                ipr_val

.fini
 *(.fini)
                0x80040600                PROVIDE (__etext, .)
                0x80040600                PROVIDE (_etext, .)
                0x80040600                PROVIDE (etext, .)

.rodata         0x80040600     0x2d5c
 *(.rodata .rodata.* .gnu.linkonce.r.*)
 .rodata.str1.4
                0x80040600      0x494 Library/communication/data_logging.o
                                0x4a0 (size before relaxing)
 .rodata.str1.4
                0x80040a94       0x4c Library/communication/data_logging_telemetry.o
 .rodata.str1.4
                0x80040ae0       0x1d Library/communication/hud_telemetry.o
                                 0x20 (size before relaxing)
 *fill*         0x80040afd        0x3 
 .rodata.str1.4
                0x80040b00      0x10b Library/communication/mavlink_communication.o
                                0x110 (size before relaxing)
 *fill*         0x80040c0b        0x1 
 .rodata.str1.4
                0x80040c0c      0x172 Library/communication/mavlink_message_handler.o
                                0x178 (size before relaxing)
 *fill*         0x80040d7e        0x2 
 .rodata.str1.4
                0x80040d80      0x4f8 Library/communication/mavlink_waypoint_handler.o
                                0x508 (size before relaxing)
 .rodata.str1.4
                0x80041278       0x19 Library/communication/remote.o
                                 0x1c (size before relaxing)
 *fill*         0x80041291        0x3 
 .rodata.str1.4
                0x80041294       0x31 Library/communication/state.o
                                 0x34 (size before relaxing)
 *fill*         0x800412c5        0x3 
 .rodata.str1.4
                0x800412c8       0x87 Library/communication/state_machine.o
                                 0x88 (size before relaxing)
 *fill*         0x8004134f        0x1 
 .rodata.str1.4
                0x80041350       0x66 Library/communication/state_telemetry.o
                                 0x70 (size before relaxing)
 *fill*         0x800413b6        0x2 
 .rodata.str1.4
                0x800413b8       0x34 Library/control/joystick_parsing.o
 .rodata.str1.4
                0x800413ec       0x1d Library/control/stabilisation_copter.o
                                 0x20 (size before relaxing)
 *fill*         0x80041409        0x3 
 .rodata.str1.4
                0x8004140c        0x9 Library/control/stabilisation_telemetry.o
                                  0xc (size before relaxing)
 *fill*         0x80041415        0x3 
 .rodata.str1.4
                0x80041418        0x6 Library/hal/analog_monitor_telemetry.o
                                  0x8 (size before relaxing)
 *fill*         0x8004141e        0x2 
 .rodata.str1.4
                0x80041420       0x13 Library/hal/fat_fs/ff.o
                                 0x14 (size before relaxing)
 *fill*         0x80041433        0x1 
 .rodata.str1.4
                0x80041434      0x561 Library/hal/gps_ublox.o
                                0x568 (size before relaxing)
 *fill*         0x80041995        0x3 
 .rodata.str1.4
                0x80041998       0x58 Library/hal/hmc5883l.o
 .rodata.str1.4
                0x800419f0       0x46 Library/hal/i2c_driver_int.o
                                 0x4c (size before relaxing)
 *fill*         0x80041a36        0x2 
 .rodata.str1.4
                0x80041a38       0x47 Library/hal/lsm330dlc.o
                                 0x48 (size before relaxing)
 *fill*         0x80041a7f        0x1 
 .rodata.str1.4
                0x80041a80      0x335 Library/hal/sd_spi.o
                                0x340 (size before relaxing)
 *fill*         0x80041db5        0x3 
 .rodata.str1.4
                0x80041db8       0x22 Library/hal/servos.o
                                 0x24 (size before relaxing)
 *fill*         0x80041dda        0x2 
 .rodata.str1.4
                0x80041ddc       0x1a Library/hal/sonar_i2cxl.o
                                 0x1c (size before relaxing)
 *fill*         0x80041df6        0x2 
 .rodata.str1.4
                0x80041df8       0x34 Library/hal/spektrum_satellite.o
 .rodata.str1.4
                0x80041e2c       0x47 Library/runtime/scheduler_telemetry.o
                                 0x48 (size before relaxing)
 *fill*         0x80041e73        0x1 
 .rodata.str1.4
                0x80041e74       0xc1 Library/sensing/imu_telemetry.o
                                 0xc4 (size before relaxing)
 *fill*         0x80041f35        0x3 
 .rodata.str1.4
                0x80041f38       0xab Library/sensing/position_estimation.o
                                 0xb0 (size before relaxing)
 *fill*         0x80041fe3        0x1 
 .rodata.str1.4
                0x80041fe4       0x46 Library/sensing/position_estimation_telemetry.o
                                 0x68 (size before relaxing)
 *fill*         0x8004202a        0x2 
 .rodata.str1.4
                0x8004202c       0x19 Library/sensing/qfilter.o
                                 0x1c (size before relaxing)
 .rodata.str1.4
                0x00000000       0x68 Library/sensing/simulation_telemetry.o
 *fill*         0x80042045        0x3 
 .rodata.str1.4
                0x80042048       0x57 Library/util/linear_algebra.o
                                 0x58 (size before relaxing)
 *fill*         0x8004209f        0x1 
 .rodata.str1.4
                0x800420a0      0x361 src/mavlink_telemetry.o
                                0x364 (size before relaxing)
 *fill*         0x80042401        0x3 
 .rodata.str1.4
                0x80042404      0x226 Library/communication/onboard_parameters.o
                                0x22c (size before relaxing)
 *fill*         0x8004262a        0x2 
 .rodata.str1.4
                0x8004262c      0x230 Library/control/navigation.o
                                0x24c (size before relaxing)
 .rodata.str1.4
                0x8004285c       0x16 Library/control/stabilisation.o
                                 0x18 (size before relaxing)
 *fill*         0x80042872        0x2 
 .rodata.str1.4
                0x80042874       0x6f Library/hal/bmp085.o
                                 0x70 (size before relaxing)
 *fill*         0x800428e3        0x1 
 .rodata.str1.4
                0x800428e4       0x38 Library/hal/dac_dma.o
 .rodata.str1.4
                0x8004291c       0xa7 Library/runtime/scheduler.o
                                 0xa8 (size before relaxing)
 *fill*         0x800429c3        0x1 
 .rodata.str1.4
                0x800429c4       0x17 Library/sensing/imu.o
                                 0x18 (size before relaxing)
 *fill*         0x800429db        0x1 
 .rodata.str1.4
                0x800429dc       0xb6 Library/sensing/simulation.o
                                 0xc4 (size before relaxing)
 *fill*         0x80042a92        0x2 
 .rodata.str1.4
                0x80042a94        0xc Library/util/print_util.o
                                 0x24 (size before relaxing)
 .rodata.str1.4
                0x80042aa0        0xb src/asf/avr32/drivers/usart/usart.o
                                  0xc (size before relaxing)
 *fill*         0x80042aab        0x1 
 .rodata.str1.4
                0x80042aac       0x60 src/boardsupport.o
 .rodata.str1.4
                0x80042b0c       0x13 src/main.o
                                 0x14 (size before relaxing)
 *fill*         0x80042b1f        0x1 
 .rodata.str1.4
                0x80042b20        0x5 d:/programmes/atmel/studio/7.0/toolchain/avr32/avr32-gnu-toolchain/bin/../lib/gcc/avr32/4.4.7/../../../../avr32/lib/ucr3fp\libm.a(lib_a-w_asin.o)
                                  0xc (size before relaxing)
 *fill*         0x80042b25        0x3 
 .rodata.str1.4
                0x80042b28        0x5 d:/programmes/atmel/studio/7.0/toolchain/avr32/avr32-gnu-toolchain/bin/../lib/gcc/avr32/4.4.7/../../../../avr32/lib/ucr3fp\libm.a(lib_a-w_fmod.o)
                                  0x8 (size before relaxing)
 *fill*         0x80042b2d        0x3 
 .rodata.str1.4
                0x80042b30        0x4 d:/programmes/atmel/studio/7.0/toolchain/avr32/avr32-gnu-toolchain/bin/../lib/gcc/avr32/4.4.7/../../../../avr32/lib/ucr3fp\libm.a(lib_a-w_pow.o)
 .rodata.str1.4
                0x80042b34        0x5 d:/programmes/atmel/studio/7.0/toolchain/avr32/avr32-gnu-toolchain/bin/../lib/gcc/avr32/4.4.7/../../../../avr32/lib/ucr3fp\libm.a(lib_a-w_sqrt.o)
                                  0x8 (size before relaxing)
 *fill*         0x80042b39        0x3 
 .rodata.str1.4
                0x80042b3c        0x6 d:/programmes/atmel/studio/7.0/toolchain/avr32/avr32-gnu-toolchain/bin/../lib/gcc/avr32/4.4.7/../../../../avr32/lib/ucr3fp\libm.a(lib_a-wf_sqrt.o)
                                  0x8 (size before relaxing)
 *fill*         0x80042b42        0x2 
 .rodata.Zero   0x80042b44       0x10 d:/programmes/atmel/studio/7.0/toolchain/avr32/avr32-gnu-toolchain/bin/../lib/gcc/avr32/4.4.7/../../../../avr32/lib/ucr3fp\libm.a(lib_a-e_fmod.o)
 .rodata.dp_h   0x80042b54       0x10 d:/programmes/atmel/studio/7.0/toolchain/avr32/avr32-gnu-toolchain/bin/../lib/gcc/avr32/4.4.7/../../../../avr32/lib/ucr3fp\libm.a(lib_a-e_pow.o)
 .rodata.dp_l   0x80042b64       0x10 d:/programmes/atmel/studio/7.0/toolchain/avr32/avr32-gnu-toolchain/bin/../lib/gcc/avr32/4.4.7/../../../../avr32/lib/ucr3fp\libm.a(lib_a-e_pow.o)
 .rodata.bp     0x80042b74       0x10 d:/programmes/atmel/studio/7.0/toolchain/avr32/avr32-gnu-toolchain/bin/../lib/gcc/avr32/4.4.7/../../../../avr32/lib/ucr3fp\libm.a(lib_a-e_pow.o)
 .rodata.str1.4
                0x00000000        0x4 d:/programmes/atmel/studio/7.0/toolchain/avr32/avr32-gnu-toolchain/bin/../lib/gcc/avr32/4.4.7/../../../../avr32/lib/ucr3fp\libm.a(lib_a-e_pow.o)
 .rodata.npio2_hw
                0x80042b84       0x80 d:/programmes/atmel/studio/7.0/toolchain/avr32/avr32-gnu-toolchain/bin/../lib/gcc/avr32/4.4.7/../../../../avr32/lib/ucr3fp\libm.a(lib_a-e_rem_pio2.o)
 .rodata.two_over_pi
                0x80042c04      0x108 d:/programmes/atmel/studio/7.0/toolchain/avr32/avr32-gnu-toolchain/bin/../lib/gcc/avr32/4.4.7/../../../../avr32/lib/ucr3fp\libm.a(lib_a-e_rem_pio2.o)
 .rodata.init_jk
                0x80042d0c       0x10 d:/programmes/atmel/studio/7.0/toolchain/avr32/avr32-gnu-toolchain/bin/../lib/gcc/avr32/4.4.7/../../../../avr32/lib/ucr3fp\libm.a(lib_a-k_rem_pio2.o)
 .rodata.PIo2   0x80042d1c       0x40 d:/programmes/atmel/studio/7.0/toolchain/avr32/avr32-gnu-toolchain/bin/../lib/gcc/avr32/4.4.7/../../../../avr32/lib/ucr3fp\libm.a(lib_a-k_rem_pio2.o)
 .rodata.atanlo
                0x80042d5c       0x20 d:/programmes/atmel/studio/7.0/toolchain/avr32/avr32-gnu-toolchain/bin/../lib/gcc/avr32/4.4.7/../../../../avr32/lib/ucr3fp\libm.a(lib_a-s_atan.o)
 .rodata.atanhi
                0x80042d7c       0x20 d:/programmes/atmel/studio/7.0/toolchain/avr32/avr32-gnu-toolchain/bin/../lib/gcc/avr32/4.4.7/../../../../avr32/lib/ucr3fp\libm.a(lib_a-s_atan.o)
 .rodata.TWO52  0x80042d9c       0x10 d:/programmes/atmel/studio/7.0/toolchain/avr32/avr32-gnu-toolchain/bin/../lib/gcc/avr32/4.4.7/../../../../avr32/lib/ucr3fp\libm.a(lib_a-s_rint.o)
 .rodata.str1.4
                0x80042dac        0x2 d:/programmes/atmel/studio/7.0/toolchain/avr32/avr32-gnu-toolchain/bin/../lib/gcc/avr32/4.4.7/../../../../avr32/lib/ucr3fp\libc.a(lib_a-impure.o)
                                  0x4 (size before relaxing)
 *fill*         0x80042dae        0x2 
 .rodata._global_impure_ptr
                0x80042db0        0x4 d:/programmes/atmel/studio/7.0/toolchain/avr32/avr32-gnu-toolchain/bin/../lib/gcc/avr32/4.4.7/../../../../avr32/lib/ucr3fp\libc.a(lib_a-impure.o)
                0x80042db0                _global_impure_ptr
 .rodata.get_arg
                0x80042db4       0x3c d:/programmes/atmel/studio/7.0/toolchain/avr32/avr32-gnu-toolchain/bin/../lib/gcc/avr32/4.4.7/../../../../avr32/lib/ucr3fp\libc.a(lib_a-vfprintf.o)
 .rodata._vfprintf_r
                0x80042df0      0x164 d:/programmes/atmel/studio/7.0/toolchain/avr32/avr32-gnu-toolchain/bin/../lib/gcc/avr32/4.4.7/../../../../avr32/lib/ucr3fp\libc.a(lib_a-vfprintf.o)
 .rodata.state_table
                0x80042f54       0x6c d:/programmes/atmel/studio/7.0/toolchain/avr32/avr32-gnu-toolchain/bin/../lib/gcc/avr32/4.4.7/../../../../avr32/lib/ucr3fp\libc.a(lib_a-vfprintf.o)
 .rodata.action_table
                0x80042fc0       0x6c d:/programmes/atmel/studio/7.0/toolchain/avr32/avr32-gnu-toolchain/bin/../lib/gcc/avr32/4.4.7/../../../../avr32/lib/ucr3fp\libc.a(lib_a-vfprintf.o)
 .rodata.str1.4
                0x8004302c       0x3a d:/programmes/atmel/studio/7.0/toolchain/avr32/avr32-gnu-toolchain/bin/../lib/gcc/avr32/4.4.7/../../../../avr32/lib/ucr3fp\libc.a(lib_a-vfprintf.o)
                                 0x3c (size before relaxing)
 *fill*         0x80043066        0x2 
 .rodata.blanks.3430
                0x80043068       0x10 d:/programmes/atmel/studio/7.0/toolchain/avr32/avr32-gnu-toolchain/bin/../lib/gcc/avr32/4.4.7/../../../../avr32/lib/ucr3fp\libc.a(lib_a-vfprintf.o)
 .rodata.zeroes.3431
                0x80043078       0x10 d:/programmes/atmel/studio/7.0/toolchain/avr32/avr32-gnu-toolchain/bin/../lib/gcc/avr32/4.4.7/../../../../avr32/lib/ucr3fp\libc.a(lib_a-vfprintf.o)
 .rodata.chclass
                0x80043088      0x100 d:/programmes/atmel/studio/7.0/toolchain/avr32/avr32-gnu-toolchain/bin/../lib/gcc/avr32/4.4.7/../../../../avr32/lib/ucr3fp\libc.a(lib_a-vfprintf.o)
 .rodata.str1.4
                0x80043188       0x10 d:/programmes/atmel/studio/7.0/toolchain/avr32/avr32-gnu-toolchain/bin/../lib/gcc/avr32/4.4.7/../../../../avr32/lib/ucr3fp\libc.a(lib_a-dtoa.o)
                                 0x14 (size before relaxing)
 .rodata.__sf_fake_stdin
                0x80043198       0x20 d:/programmes/atmel/studio/7.0/toolchain/avr32/avr32-gnu-toolchain/bin/../lib/gcc/avr32/4.4.7/../../../../avr32/lib/ucr3fp\libc.a(lib_a-findfp.o)
                0x80043198                __sf_fake_stdin
 .rodata.__sf_fake_stdout
                0x800431b8       0x20 d:/programmes/atmel/studio/7.0/toolchain/avr32/avr32-gnu-toolchain/bin/../lib/gcc/avr32/4.4.7/../../../../avr32/lib/ucr3fp\libc.a(lib_a-findfp.o)
                0x800431b8                __sf_fake_stdout
 .rodata.__sf_fake_stderr
                0x800431d8       0x20 d:/programmes/atmel/studio/7.0/toolchain/avr32/avr32-gnu-toolchain/bin/../lib/gcc/avr32/4.4.7/../../../../avr32/lib/ucr3fp\libc.a(lib_a-findfp.o)
                0x800431d8                __sf_fake_stderr
 .rodata.charset
                0x800431f8        0x4 d:/programmes/atmel/studio/7.0/toolchain/avr32/avr32-gnu-toolchain/bin/../lib/gcc/avr32/4.4.7/../../../../avr32/lib/ucr3fp\libc.a(lib_a-locale.o)
 .rodata.lconv  0x800431fc       0x30 d:/programmes/atmel/studio/7.0/toolchain/avr32/avr32-gnu-toolchain/bin/../lib/gcc/avr32/4.4.7/../../../../avr32/lib/ucr3fp\libc.a(lib_a-locale.o)
 .rodata.str1.4
                0x8004322c        0xc d:/programmes/atmel/studio/7.0/toolchain/avr32/avr32-gnu-toolchain/bin/../lib/gcc/avr32/4.4.7/../../../../avr32/lib/ucr3fp\libc.a(lib_a-locale.o)
                                 0x18 (size before relaxing)
 .rodata.p05.2471
                0x80043238        0xc d:/programmes/atmel/studio/7.0/toolchain/avr32/avr32-gnu-toolchain/bin/../lib/gcc/avr32/4.4.7/../../../../avr32/lib/ucr3fp\libc.a(lib_a-mprec.o)
 .rodata.__mprec_tens
                0x80043244       0xc8 d:/programmes/atmel/studio/7.0/toolchain/avr32/avr32-gnu-toolchain/bin/../lib/gcc/avr32/4.4.7/../../../../avr32/lib/ucr3fp\libc.a(lib_a-mprec.o)
                0x80043244                __mprec_tens
 .rodata.__mprec_bigtens
                0x8004330c       0x28 d:/programmes/atmel/studio/7.0/toolchain/avr32/avr32-gnu-toolchain/bin/../lib/gcc/avr32/4.4.7/../../../../avr32/lib/ucr3fp\libc.a(lib_a-mprec.o)
                0x8004330c                __mprec_bigtens
 .rodata.__mprec_tinytens
                0x80043334       0x28 d:/programmes/atmel/studio/7.0/toolchain/avr32/avr32-gnu-toolchain/bin/../lib/gcc/avr32/4.4.7/../../../../avr32/lib/ucr3fp\libc.a(lib_a-mprec.o)
                0x80043334                __mprec_tinytens

.rodata1
 *(.rodata1)

.eh_frame_hdr
 *(.eh_frame_hdr)

.eh_frame
 *(.eh_frame)

.gcc_except_table
 *(.gcc_except_table)
 *(.gcc_except_table.*)

.dalign         0x8004335c        0x4
                0x80043360                . = ALIGN (0x8)
 *fill*         0x8004335c        0x4 
                0x80043360                PROVIDE (_data_lma, .)
                0x00000004                PROVIDE (_data, ORIGIN (CPUSRAM))
                0x00000004                . = ORIGIN (CPUSRAM)

.eh_frame
 *(.eh_frame)

.gcc_except_table
 *(.gcc_except_table)
 *(.gcc_except_table.*)

.tdata
 *(.tdata .tdata.* .gnu.linkonce.td.*)

.tbss
 *(.tbss .tbss.* .gnu.linkonce.tb.*)
 *(.tcommon)
                0x00000004                PROVIDE (__preinit_array_start, ALIGN (0x4))

.preinit_array
 *(.preinit_array)
                0x00000004                PROVIDE (__preinit_array_end, .)
                0x00000004                PROVIDE (__init_array_start, .)

.init_array
 *(.init_array)
                0x00000004                PROVIDE (__init_array_end, .)
                0x00000004                PROVIDE (__fini_array_start, .)

.fini_array
 *(.fini_array)
                0x00000004                PROVIDE (__fini_array_end, .)

.ctors
 *crtbegin*.o(.ctors)
 *(EXCLUDE_FILE(*crtend*.o) .ctors)
 *(SORT(.ctors.*))
 *(.ctors)

.dtors
 *crtbegin*.o(.dtors)
 *(EXCLUDE_FILE(*crtend*.o) .dtors)
 *(SORT(.dtors.*))
 *(.dtors)

.jcr
 *(.jcr)

.data.rel.ro    0x00000004      0x178 load address 0x80043360
 *(.data.rel.ro.local)
 .data.rel.ro.local
                0x00000004      0x178 src/asf/avr32/drivers/intc/intc.o
 *(.data.rel.ro*)

.dynamic
 *(.dynamic)

.got            0x0000017c     0x129c load address 0x800434d8
 *(.got.plt)
 *(.got)
 .got           0x0000017c     0x129c Library/communication/console.o
                0x0000017c                _GLOBAL_OFFSET_TABLE_

.data           0x00001418     0x1f28 load address 0x80044774
 *(.data .data.* .gnu.linkonce.d.*)
 .data          0x00001418        0xc Library/communication/console.o
 .data          0x00001424       0x38 Library/communication/data_logging.o
 .data          0x0000145c        0x8 Library/communication/data_logging_telemetry.o
 .data          0x00001464        0x8 Library/communication/hud_telemetry.o
 .data          0x0000146c       0x18 Library/communication/mavlink_communication.o
 .data          0x00001484       0x18 Library/communication/mavlink_message_handler.o
 .data          0x0000149c       0x4c Library/communication/mavlink_waypoint_handler.o
 .data          0x000014e8       0x48 Library/communication/remote.o
 .data          0x00001530       0x10 Library/communication/remote_telemetry.o
 .data          0x00001540        0x8 Library/communication/state.o
 .data          0x00001548        0x8 Library/communication/state_machine.o
 .data          0x00001550       0x18 Library/communication/state_telemetry.o
 .data          0x00001568       0x14 Library/control/adaptive_parameter.o
 .data          0x0000157c        0x8 Library/control/altitude_controller.o
 .data          0x00001584        0x8 Library/control/attitude_controller.o
 .data          0x0000158c        0x8 Library/control/attitude_controller_p2.o
 .data          0x00001594       0x14 Library/control/attitude_error_estimator.o
 .data          0x000015a8       0x3c Library/control/joystick_parsing.o
 .data          0x000015e4        0xc Library/control/joystick_parsing_telemetry.o
 .data          0x000015f0       0x14 Library/control/pid_controller.o
 .data          0x00001604        0x8 Library/control/servos_mix_quadcopter_cross.o
 .data          0x0000160c        0x8 Library/control/servos_mix_quadcopter_diag.o
 .data          0x00001614       0x14 Library/control/stabilisation_copter.o
 .data          0x00001628       0x10 Library/control/stabilisation_telemetry.o
 .data          0x00001638        0x8 Library/control/vector_field_waypoint.o
 .data          0x00001640        0x8 Library/control/velocity_controller_copter.o
 .data          0x00001648        0x4 Library/hal/analog_monitor_telemetry.o
 .data          0x0000164c       0x10 Library/hal/analog_monitor.o
 .data          0x0000165c        0x4 Library/hal/bmp085_telemetry.o
 .data          0x00001660       0x18 Library/hal/fat_fs/diskio.o
 .data          0x00001678       0x9c Library/hal/fat_fs/ff.o
 .data          0x00001714        0x8 Library/hal/fat_fs/option/ccsbcs.o
 .data          0x0000171c        0x8 Library/hal/fat_fs/option/syscall.o
 .data          0x00001724        0x0 Library/hal/fat_fs/option/unicode.o
 .data          0x00001724       0x1c Library/hal/gps_ublox.o
                0x0000173c                num_skipped_msg
 .data.rel      0x00001740       0x58 Library/hal/gps_ublox.o
                0x00001740                ubx_current_pos_llh_message
                0x00001744                ubx_last_pos_llh_message
                0x00001748                ubx_current_status_message
                0x0000174c                ubx_last_status_message
                0x00001750                ubx_current_solution_message
                0x00001754                ubx_last_solution_message
                0x00001758                ubx_current_vel_ned_message
                0x0000175c                ubx_last_vel_ned_message
                0x00001760                ubx_current_sv_info_message
                0x00001764                ubx_last_sv_info_message
                0x00001768                ubx_current_nav_settings_message
                0x0000176c                ubx_last_nav_settings_message
                0x00001770                ubx_current_cfg_rate_message
                0x00001774                ubx_last_cfg_rate_message
                0x00001778                ubx_current_cfg_set_get_rate_message
                0x0000177c                ubx_last_cfg_set_get_rate_message
                0x00001780                ubx_current_mon_rxr_message
                0x00001784                ubx_last_mon_rxr_message
                0x00001788                ubx_current_tim_tp_message
                0x0000178c                ubx_last_tim_tp_message
                0x00001790                ubx_current_tim_vrfy_message
                0x00001794                ubx_last_tim_vrfy_message
 .data          0x00001798        0x4 Library/hal/gps_ublox_telemetry.o
 .data          0x0000179c        0xc Library/hal/hmc5883l.o
 .data          0x000017a8       0x10 Library/hal/i2c_driver_int.o
 .data          0x000017b8        0xc Library/hal/lsm330dlc.o
 .data          0x000017c4       0x24 Library/hal/piezo_speaker.o
 .data          0x000017e8       0x10 Library/hal/pwm_servos.o
 .data          0x000017f8       0x4c Library/hal/sd_spi.o
 .data          0x00001844        0xc Library/hal/servos.o
 .data          0x00001850        0x4 Library/hal/servos_telemetry.o
 .data          0x00001854       0x20 Library/hal/sonar_i2cxl.o
 .data          0x00001874        0x4 Library/hal/sonar_telemetry.o
 .data          0x00001878       0x1c Library/hal/spektrum_satellite.o
 .data          0x00001894       0x20 Library/hal/time_keeper.o
 .data          0x000018b4       0x18 Library/hal/usb_int.o
 .data          0x000018cc        0xc Library/hal/xbee.o
 .data          0x000018d8        0x4 Library/runtime/scheduler_telemetry.o
 .data          0x000018dc        0x4 Library/sensing/ahrs.o
 .data          0x000018e0        0x8 Library/sensing/ahrs_telemetry.o
 .data          0x000018e8        0x8 Library/sensing/altitude_estimation.o
 .data          0x000018f0       0x10 Library/sensing/imu_telemetry.o
 .data          0x00001900       0x10 Library/sensing/position_estimation.o
 .data          0x00001910       0x10 Library/sensing/position_estimation_telemetry.o
 .data          0x00001920        0x8 Library/sensing/qfilter.o
 .data          0x00001928       0x10 Library/sensing/simulation_telemetry.o
 .data          0x00001938        0xc Library/util/linear_algebra.o
 .data          0x00001944       0x38 Library/util/matrixlib_float.o
 .data          0x0000197c       0x18 Library/util/quick_trig.o
 .data          0x00001994      0x910 src/central_data.o
                0x0000199c                servos_default_config
                0x00001a60                scheduler_default_config
                0x00001a6c                mavlink_communication_default_config
                0x00001a9c                state_default_config
                0x00001ac4                ahrs_default_config
                0x00001ad0                navigation_default_config
                0x00001b60                stabilisation_copter_default_config
                0x00001fcc                simulation_default_config
                0x0000201c                attitude_controller_p2_default_config
                0x00002034                servo_mix_quadcopter_diag_default_config
                0x00002050                remote_default_config
                0x00002084                data_logging_default_config
 .data          0x000022a4       0x10 src/mavlink_telemetry.o
 .data          0x000022b4       0x20 src/tasks.o
 .data          0x000022d4       0x10 Library/communication/mavlink_stream.o
 .data          0x000022e4       0x2c Library/communication/onboard_parameters.o
 .data          0x00002310       0x20 Library/control/navigation.o
 .data          0x00002330        0x8 Library/control/stabilisation.o
 .data          0x00002338       0x4c Library/hal/adc_int.o
                0x00002364                adcifa
                0x00002368                adc_config_options
                0x0000237c                adcifa_sequence_opt
 .data          0x00002384       0x30 Library/hal/ads1274.o
                0x000023a8                waveform_opt
                0x000023b0                tc
 .data          0x000023b4       0x10 Library/hal/bmp085.o
 .data          0x000023c4       0x50 Library/hal/dac_dma.o
                0x00002408                ppevc
                0x0000240c                dacifb
                0x00002410                dac_value_audio
                0x00002412                dac_channel_audio
 .data          0x00002414       0x34 Library/hal/led.o
 .data          0x00002448       0x98 Library/hal/spi_buffered.o
 .data          0x000024e0       0x40 Library/hal/uart_int.o
 .data          0x00002520       0x28 Library/runtime/scheduler.o
 .data          0x00002548        0x8 Library/sensing/imu.o
 .data          0x00002550       0x2c Library/sensing/simulation.o
 .data          0x0000257c       0x28 Library/util/buffer.o
 .data          0x000025a4       0x14 Library/util/coord_conventions.o
 .data          0x000025b8       0x10 Library/util/generator.o
 .data          0x000025c8       0x4c Library/util/print_util.o
 .data          0x00002614       0x78 Library/util/sinus.o
                0x00002614                sin_table
 .data          0x0000268c       0x34 src/asf/avr32/drivers/adcifa/adcifa.o
 .data          0x000026c0       0x4c src/asf/avr32/drivers/ast/ast.o
 .data          0x0000270c       0x1c src/asf/avr32/drivers/dacifb/dacifb.o
 .data          0x00002728       0x38 src/asf/avr32/drivers/eic/eic.o
 .data          0x00002760      0x104 src/asf/avr32/drivers/flashc/flashc.o
 .data.rel      0x00002864        0x4 src/asf/avr32/drivers/flashc/flashc.o
                0x00002864                flashc_wait_until_ready
 .data          0x00002868       0x84 src/asf/avr32/drivers/gpio/gpio.o
 .data          0x000028ec        0x0 src/asf/avr32/drivers/intc/exception.o
 .data          0x000028ec       0x10 src/asf/avr32/drivers/intc/intc.o
 .data          0x000028fc       0x50 src/asf/avr32/drivers/pdca/pdca.o
 .data          0x0000294c       0x4c src/asf/avr32/drivers/pevc/pevc.o
 .data          0x00002998       0x1c src/asf/avr32/drivers/pm/pm_uc3c.o
 .data          0x000029b4       0x14 src/asf/avr32/drivers/pm/power_clocks_lib.o
 .data          0x000029c8       0x6c src/asf/avr32/drivers/pwm/pwm4.o
 .data          0x00002a34       0xa4 src/asf/avr32/drivers/scif/scif_uc3c.o
 .data          0x00002ad8       0x48 src/asf/avr32/drivers/spi/spi.o
 .data          0x00002b20       0x48 src/asf/avr32/drivers/tc/tc.o
 .data          0x00002b68       0x30 src/asf/avr32/drivers/twim/twim.o
 .data          0x00002b98       0x5c src/asf/avr32/drivers/usart/usart.o
 .data          0x00002bf4       0x60 src/asf/avr32/drivers/usbc/usbc_device.o
 .data          0x00002c54        0x8 src/asf/avr32/services/delay/delay.o
 .data          0x00002c5c        0x0 src/asf/avr32/utils/startup/startup_uc3.o
 .data          0x00002c5c        0x0 src/asf/avr32/utils/startup/trampoline_uc3.o
 .data          0x00002c5c        0x4 src/asf/common/boards/user_board/init.o
 .data          0x00002c60       0x20 src/asf/common/services/clock/uc3c/osc.o
 .data          0x00002c80        0xc src/asf/common/services/clock/uc3c/pll.o
 .data          0x00002c8c       0x1c src/asf/common/services/clock/uc3c/sysclk.o
 .data          0x00002ca8        0x0 src/asf/common/services/sleepmgr/uc3/sleepmgr.o
 .data          0x00002ca8        0xc src/asf/common/services/spi/uc3_spi/spi_master.o
 .data          0x00002cb4       0x6c src/asf/common/services/usb/class/cdc/device/udi_cdc.o
 .data.rel      0x00002d20       0x28 src/asf/common/services/usb/class/cdc/device/udi_cdc.o
                0x00002d20                udi_api_cdc_comm
                0x00002d34                udi_api_cdc_data
 .data          0x00002d48       0x58 src/asf/common/services/usb/class/cdc/device/udi_cdc_desc.o
                0x00002d48                udc_device_desc
                0x00002d5c                udc_desc
 .data.rel      0x00002da0       0x18 src/asf/common/services/usb/class/cdc/device/udi_cdc_desc.o
                0x00002da0                udi_apis
                0x00002da8                udc_config_fshs
                0x00002db0                udc_config
 .data          0x00002db8       0x44 src/asf/common/services/usb/udc/udc.o
 .data          0x00002dfc        0x4 src/asf/common/utils/stdio/read.o
 .data          0x00002e00       0x18 src/asf/common/utils/stdio/stdio_usb/stdio_usb.o
 .data          0x00002e18        0x4 src/asf/common/utils/stdio/write.o
 .data          0x00002e1c        0x4 src/boardsupport.o
 .data          0x00002e20        0x8 src/main.o
 .data          0x00002e28        0x0 d:/programmes/atmel/studio/7.0/toolchain/avr32/avr32-gnu-toolchain/bin/../lib/gcc/avr32/4.4.7/../../../../avr32/lib/ucr3fp\libm.a(lib_a-s_cos.o)
 .data          0x00002e28        0x0 d:/programmes/atmel/studio/7.0/toolchain/avr32/avr32-gnu-toolchain/bin/../lib/gcc/avr32/4.4.7/../../../../avr32/lib/ucr3fp\libm.a(lib_a-s_floor.o)
 .data          0x00002e28        0x0 d:/programmes/atmel/studio/7.0/toolchain/avr32/avr32-gnu-toolchain/bin/../lib/gcc/avr32/4.4.7/../../../../avr32/lib/ucr3fp\libm.a(lib_a-s_sin.o)
 .data          0x00002e28        0x0 d:/programmes/atmel/studio/7.0/toolchain/avr32/avr32-gnu-toolchain/bin/../lib/gcc/avr32/4.4.7/../../../../avr32/lib/ucr3fp\libm.a(lib_a-w_asin.o)
 .data          0x00002e28        0x0 d:/programmes/atmel/studio/7.0/toolchain/avr32/avr32-gnu-toolchain/bin/../lib/gcc/avr32/4.4.7/../../../../avr32/lib/ucr3fp\libm.a(lib_a-w_atan2.o)
 .data          0x00002e28        0x0 d:/programmes/atmel/studio/7.0/toolchain/avr32/avr32-gnu-toolchain/bin/../lib/gcc/avr32/4.4.7/../../../../avr32/lib/ucr3fp\libm.a(lib_a-w_fmod.o)
 .data          0x00002e28        0x0 d:/programmes/atmel/studio/7.0/toolchain/avr32/avr32-gnu-toolchain/bin/../lib/gcc/avr32/4.4.7/../../../../avr32/lib/ucr3fp\libm.a(lib_a-w_pow.o)
 .data          0x00002e28        0x0 d:/programmes/atmel/studio/7.0/toolchain/avr32/avr32-gnu-toolchain/bin/../lib/gcc/avr32/4.4.7/../../../../avr32/lib/ucr3fp\libm.a(lib_a-w_sqrt.o)
 .data          0x00002e28        0x0 d:/programmes/atmel/studio/7.0/toolchain/avr32/avr32-gnu-toolchain/bin/../lib/gcc/avr32/4.4.7/../../../../avr32/lib/ucr3fp\libm.a(lib_a-wf_sqrt.o)
 .data          0x00002e28        0x0 d:/programmes/atmel/studio/7.0/toolchain/avr32/avr32-gnu-toolchain/bin/../lib/gcc/avr32/4.4.7/../../../../avr32/lib/ucr3fp\libm.a(lib_a-e_asin.o)
 .data          0x00002e28        0x0 d:/programmes/atmel/studio/7.0/toolchain/avr32/avr32-gnu-toolchain/bin/../lib/gcc/avr32/4.4.7/../../../../avr32/lib/ucr3fp\libm.a(lib_a-e_atan2.o)
 .data          0x00002e28        0x0 d:/programmes/atmel/studio/7.0/toolchain/avr32/avr32-gnu-toolchain/bin/../lib/gcc/avr32/4.4.7/../../../../avr32/lib/ucr3fp\libm.a(lib_a-e_fmod.o)
 .data          0x00002e28        0x0 d:/programmes/atmel/studio/7.0/toolchain/avr32/avr32-gnu-toolchain/bin/../lib/gcc/avr32/4.4.7/../../../../avr32/lib/ucr3fp\libm.a(lib_a-e_pow.o)
 .data          0x00002e28        0x0 d:/programmes/atmel/studio/7.0/toolchain/avr32/avr32-gnu-toolchain/bin/../lib/gcc/avr32/4.4.7/../../../../avr32/lib/ucr3fp\libm.a(lib_a-e_rem_pio2.o)
 .data          0x00002e28        0x0 d:/programmes/atmel/studio/7.0/toolchain/avr32/avr32-gnu-toolchain/bin/../lib/gcc/avr32/4.4.7/../../../../avr32/lib/ucr3fp\libm.a(lib_a-e_sqrt.o)
 .data          0x00002e28        0x0 d:/programmes/atmel/studio/7.0/toolchain/avr32/avr32-gnu-toolchain/bin/../lib/gcc/avr32/4.4.7/../../../../avr32/lib/ucr3fp\libm.a(lib_a-ef_sqrt.o)
 .data          0x00002e28        0x0 d:/programmes/atmel/studio/7.0/toolchain/avr32/avr32-gnu-toolchain/bin/../lib/gcc/avr32/4.4.7/../../../../avr32/lib/ucr3fp\libm.a(lib_a-k_cos.o)
 .data          0x00002e28        0x0 d:/programmes/atmel/studio/7.0/toolchain/avr32/avr32-gnu-toolchain/bin/../lib/gcc/avr32/4.4.7/../../../../avr32/lib/ucr3fp\libm.a(lib_a-k_rem_pio2.o)
 .data          0x00002e28        0x0 d:/programmes/atmel/studio/7.0/toolchain/avr32/avr32-gnu-toolchain/bin/../lib/gcc/avr32/4.4.7/../../../../avr32/lib/ucr3fp\libm.a(lib_a-k_sin.o)
 .data          0x00002e28        0x0 d:/programmes/atmel/studio/7.0/toolchain/avr32/avr32-gnu-toolchain/bin/../lib/gcc/avr32/4.4.7/../../../../avr32/lib/ucr3fp\libm.a(lib_a-s_atan.o)
 .data          0x00002e28        0x0 d:/programmes/atmel/studio/7.0/toolchain/avr32/avr32-gnu-toolchain/bin/../lib/gcc/avr32/4.4.7/../../../../avr32/lib/ucr3fp\libm.a(lib_a-s_fabs.o)
 .data          0x00002e28        0x0 d:/programmes/atmel/studio/7.0/toolchain/avr32/avr32-gnu-toolchain/bin/../lib/gcc/avr32/4.4.7/../../../../avr32/lib/ucr3fp\libm.a(lib_a-s_finite.o)
 .data          0x00002e28        0x0 d:/programmes/atmel/studio/7.0/toolchain/avr32/avr32-gnu-toolchain/bin/../lib/gcc/avr32/4.4.7/../../../../avr32/lib/ucr3fp\libm.a(lib_a-s_isnand.o)
 .data          0x00002e28        0x0 d:/programmes/atmel/studio/7.0/toolchain/avr32/avr32-gnu-toolchain/bin/../lib/gcc/avr32/4.4.7/../../../../avr32/lib/ucr3fp\libm.a(lib_a-s_lib_ver.o)
 .data.__fdlib_version
                0x00002e28        0x4 d:/programmes/atmel/studio/7.0/toolchain/avr32/avr32-gnu-toolchain/bin/../lib/gcc/avr32/4.4.7/../../../../avr32/lib/ucr3fp\libm.a(lib_a-s_lib_ver.o)
                0x00002e28                __fdlib_version
 .data          0x00002e2c        0x0 d:/programmes/atmel/studio/7.0/toolchain/avr32/avr32-gnu-toolchain/bin/../lib/gcc/avr32/4.4.7/../../../../avr32/lib/ucr3fp\libm.a(lib_a-s_matherr.o)
 .data          0x00002e2c        0x0 d:/programmes/atmel/studio/7.0/toolchain/avr32/avr32-gnu-toolchain/bin/../lib/gcc/avr32/4.4.7/../../../../avr32/lib/ucr3fp\libm.a(lib_a-s_nan.o)
 .data          0x00002e2c        0x0 d:/programmes/atmel/studio/7.0/toolchain/avr32/avr32-gnu-toolchain/bin/../lib/gcc/avr32/4.4.7/../../../../avr32/lib/ucr3fp\libm.a(lib_a-s_rint.o)
 .data          0x00002e2c        0x0 d:/programmes/atmel/studio/7.0/toolchain/avr32/avr32-gnu-toolchain/bin/../lib/gcc/avr32/4.4.7/../../../../avr32/lib/ucr3fp\libm.a(lib_a-s_scalbn.o)
 .data          0x00002e2c        0x0 d:/programmes/atmel/studio/7.0/toolchain/avr32/avr32-gnu-toolchain/bin/../lib/gcc/avr32/4.4.7/../../../../avr32/lib/ucr3fp\libm.a(lib_a-sf_isnan.o)
 .data          0x00002e2c        0x0 d:/programmes/atmel/studio/7.0/toolchain/avr32/avr32-gnu-toolchain/bin/../lib/gcc/avr32/4.4.7/../../../../avr32/lib/ucr3fp\libm.a(lib_a-s_copysign.o)
 .data          0x00002e2c        0x0 d:/programmes/atmel/studio/7.0/toolchain/avr32/avr32-gnu-toolchain/bin/../lib/gcc/avr32/4.4.7/ucr3fp\libgcc.a(_avr32_f64_mul.o)
 .data          0x00002e2c        0x0 d:/programmes/atmel/studio/7.0/toolchain/avr32/avr32-gnu-toolchain/bin/../lib/gcc/avr32/4.4.7/ucr3fp\libgcc.a(_avr32_f64_addsub.o)
 .data          0x00002e2c        0x0 d:/programmes/atmel/studio/7.0/toolchain/avr32/avr32-gnu-toolchain/bin/../lib/gcc/avr32/4.4.7/ucr3fp\libgcc.a(_avr32_f64_to_s32.o)
 .data          0x00002e2c        0x0 d:/programmes/atmel/studio/7.0/toolchain/avr32/avr32-gnu-toolchain/bin/../lib/gcc/avr32/4.4.7/ucr3fp\libgcc.a(_avr32_f64_to_s64.o)
 .data          0x00002e2c        0x0 d:/programmes/atmel/studio/7.0/toolchain/avr32/avr32-gnu-toolchain/bin/../lib/gcc/avr32/4.4.7/ucr3fp\libgcc.a(_avr32_s32_to_f64.o)
 .data          0x00002e2c        0x0 d:/programmes/atmel/studio/7.0/toolchain/avr32/avr32-gnu-toolchain/bin/../lib/gcc/avr32/4.4.7/ucr3fp\libgcc.a(_avr32_f64_cmp_eq.o)
 .data          0x00002e2c        0x0 d:/programmes/atmel/studio/7.0/toolchain/avr32/avr32-gnu-toolchain/bin/../lib/gcc/avr32/4.4.7/ucr3fp\libgcc.a(_avr32_f64_cmp_ge.o)
 .data          0x00002e2c        0x0 d:/programmes/atmel/studio/7.0/toolchain/avr32/avr32-gnu-toolchain/bin/../lib/gcc/avr32/4.4.7/ucr3fp\libgcc.a(_avr32_f64_cmp_lt.o)
 .data          0x00002e2c        0x0 d:/programmes/atmel/studio/7.0/toolchain/avr32/avr32-gnu-toolchain/bin/../lib/gcc/avr32/4.4.7/ucr3fp\libgcc.a(_avr32_f32_cmp_lt.o)
 .data          0x00002e2c        0x0 d:/programmes/atmel/studio/7.0/toolchain/avr32/avr32-gnu-toolchain/bin/../lib/gcc/avr32/4.4.7/ucr3fp\libgcc.a(_avr32_f64_div.o)
 .data          0x00002e2c        0x0 d:/programmes/atmel/studio/7.0/toolchain/avr32/avr32-gnu-toolchain/bin/../lib/gcc/avr32/4.4.7/ucr3fp\libgcc.a(_avr32_f32_div.o)
 .data          0x00002e2c        0x0 d:/programmes/atmel/studio/7.0/toolchain/avr32/avr32-gnu-toolchain/bin/../lib/gcc/avr32/4.4.7/ucr3fp\libgcc.a(_avr32_f32_addsub.o)
 .data          0x00002e2c        0x0 d:/programmes/atmel/studio/7.0/toolchain/avr32/avr32-gnu-toolchain/bin/../lib/gcc/avr32/4.4.7/ucr3fp\libgcc.a(_avr32_f32_mul.o)
 .data          0x00002e2c        0x0 d:/programmes/atmel/studio/7.0/toolchain/avr32/avr32-gnu-toolchain/bin/../lib/gcc/avr32/4.4.7/ucr3fp\libgcc.a(_avr32_f32_to_f64.o)
 .data          0x00002e2c        0x0 d:/programmes/atmel/studio/7.0/toolchain/avr32/avr32-gnu-toolchain/bin/../lib/gcc/avr32/4.4.7/ucr3fp\libgcc.a(_avr32_f64_to_f32.o)
 .data          0x00002e2c        0x0 d:/programmes/atmel/studio/7.0/toolchain/avr32/avr32-gnu-toolchain/bin/../lib/gcc/avr32/4.4.7/ucr3fp\libgcc.a(_floatdidf.o)
 .data          0x00002e2c        0x0 d:/programmes/atmel/studio/7.0/toolchain/avr32/avr32-gnu-toolchain/bin/../lib/gcc/avr32/4.4.7/ucr3fp\libgcc.a(_divdi3.o)
 .data          0x00002e2c        0x0 d:/programmes/atmel/studio/7.0/toolchain/avr32/avr32-gnu-toolchain/bin/../lib/gcc/avr32/4.4.7/ucr3fp\libgcc.a(_moddi3.o)
 .data          0x00002e2c        0x0 d:/programmes/atmel/studio/7.0/toolchain/avr32/avr32-gnu-toolchain/bin/../lib/gcc/avr32/4.4.7/ucr3fp\libgcc.a(_udivdi3.o)
 .data          0x00002e2c        0x0 d:/programmes/atmel/studio/7.0/toolchain/avr32/avr32-gnu-toolchain/bin/../lib/gcc/avr32/4.4.7/ucr3fp\libgcc.a(_umoddi3.o)
 .data          0x00002e2c        0x0 d:/programmes/atmel/studio/7.0/toolchain/avr32/avr32-gnu-toolchain/bin/../lib/gcc/avr32/4.4.7/../../../../avr32/lib/ucr3fp\libc.a(lib_a-errno.o)
 .data          0x00002e2c        0x0 d:/programmes/atmel/studio/7.0/toolchain/avr32/avr32-gnu-toolchain/bin/../lib/gcc/avr32/4.4.7/../../../../avr32/lib/ucr3fp\libc.a(lib_a-impure.o)
 .data.impure_data
                0x00002e2c       0xf0 d:/programmes/atmel/studio/7.0/toolchain/avr32/avr32-gnu-toolchain/bin/../lib/gcc/avr32/4.4.7/../../../../avr32/lib/ucr3fp\libc.a(lib_a-impure.o)
 .data._impure_ptr
                0x00002f1c        0x4 d:/programmes/atmel/studio/7.0/toolchain/avr32/avr32-gnu-toolchain/bin/../lib/gcc/avr32/4.4.7/../../../../avr32/lib/ucr3fp\libc.a(lib_a-impure.o)
                0x00002f1c                _impure_ptr
 .data          0x00002f20        0x0 d:/programmes/atmel/studio/7.0/toolchain/avr32/avr32-gnu-toolchain/bin/../lib/gcc/avr32/4.4.7/../../../../avr32/lib/ucr3fp\libc.a(lib_a-malloc.o)
 .data          0x00002f20        0x0 d:/programmes/atmel/studio/7.0/toolchain/avr32/avr32-gnu-toolchain/bin/../lib/gcc/avr32/4.4.7/../../../../avr32/lib/ucr3fp\libc.a(lib_a-mallocr.o)
 .data.__malloc_av_
                0x00002f20      0x408 d:/programmes/atmel/studio/7.0/toolchain/avr32/avr32-gnu-toolchain/bin/../lib/gcc/avr32/4.4.7/../../../../avr32/lib/ucr3fp\libc.a(lib_a-mallocr.o)
                0x00002f20                __malloc_av_
 .data.__malloc_trim_threshold
                0x00003328        0x4 d:/programmes/atmel/studio/7.0/toolchain/avr32/avr32-gnu-toolchain/bin/../lib/gcc/avr32/4.4.7/../../../../avr32/lib/ucr3fp\libc.a(lib_a-mallocr.o)
                0x00003328                __malloc_trim_threshold
 .data.__malloc_sbrk_base
                0x0000332c        0x4 d:/programmes/atmel/studio/7.0/toolchain/avr32/avr32-gnu-toolchain/bin/../lib/gcc/avr32/4.4.7/../../../../avr32/lib/ucr3fp\libc.a(lib_a-mallocr.o)
                0x0000332c                __malloc_sbrk_base
 .data          0x00003330        0x0 d:/programmes/atmel/studio/7.0/toolchain/avr32/avr32-gnu-toolchain/bin/../lib/gcc/avr32/4.4.7/../../../../avr32/lib/ucr3fp\libc.a(lib_a-memcpy.o)
 .data          0x00003330        0x0 d:/programmes/atmel/studio/7.0/toolchain/avr32/avr32-gnu-toolchain/bin/../lib/gcc/avr32/4.4.7/../../../../avr32/lib/ucr3fp\libc.a(lib_a-memset.o)
 .data          0x00003330        0x0 d:/programmes/atmel/studio/7.0/toolchain/avr32/avr32-gnu-toolchain/bin/../lib/gcc/avr32/4.4.7/../../../../avr32/lib/ucr3fp\libc.a(lib_a-mlock.o)
 .data          0x00003330        0x0 d:/programmes/atmel/studio/7.0/toolchain/avr32/avr32-gnu-toolchain/bin/../lib/gcc/avr32/4.4.7/../../../../avr32/lib/ucr3fp\libc.a(lib_a-rand.o)
 .data          0x00003330        0x0 d:/programmes/atmel/studio/7.0/toolchain/avr32/avr32-gnu-toolchain/bin/../lib/gcc/avr32/4.4.7/../../../../avr32/lib/ucr3fp\libc.a(lib_a-sbrkr.o)
 .data          0x00003330        0x0 d:/programmes/atmel/studio/7.0/toolchain/avr32/avr32-gnu-toolchain/bin/../lib/gcc/avr32/4.4.7/../../../../avr32/lib/ucr3fp\libc.a(lib_a-snprintf.o)
 .data          0x00003330        0x0 d:/programmes/atmel/studio/7.0/toolchain/avr32/avr32-gnu-toolchain/bin/../lib/gcc/avr32/4.4.7/../../../../avr32/lib/ucr3fp\libc.a(lib_a-strcpy.o)
 .data          0x00003330        0x0 d:/programmes/atmel/studio/7.0/toolchain/avr32/avr32-gnu-toolchain/bin/../lib/gcc/avr32/4.4.7/../../../../avr32/lib/ucr3fp\libc.a(lib_a-strlen.o)
 .data          0x00003330        0x0 d:/programmes/atmel/studio/7.0/toolchain/avr32/avr32-gnu-toolchain/bin/../lib/gcc/avr32/4.4.7/../../../../avr32/lib/ucr3fp\libc.a(lib_a-syscalls.o)
 .data          0x00003330        0x0 d:/programmes/atmel/studio/7.0/toolchain/avr32/avr32-gnu-toolchain/bin/../lib/gcc/avr32/4.4.7/../../../../avr32/lib/ucr3fp\libc.a(lib_a-vfprintf.o)
 .data          0x00003330        0x0 d:/programmes/atmel/studio/7.0/toolchain/avr32/avr32-gnu-toolchain/bin/../lib/gcc/avr32/4.4.7/../../../../avr32/lib/ucr3fp\libc.a(lib_a-wsetup.o)
 .data          0x00003330        0x0 d:/programmes/atmel/studio/7.0/toolchain/avr32/avr32-gnu-toolchain/bin/../lib/gcc/avr32/4.4.7/../../../../avr32/lib/ucr3fp\libc.a(lib_a-dtoa.o)
 .data          0x00003330        0x0 d:/programmes/atmel/studio/7.0/toolchain/avr32/avr32-gnu-toolchain/bin/../lib/gcc/avr32/4.4.7/../../../../avr32/lib/ucr3fp\libc.a(lib_a-fflush.o)
 .data          0x00003330        0x0 d:/programmes/atmel/studio/7.0/toolchain/avr32/avr32-gnu-toolchain/bin/../lib/gcc/avr32/4.4.7/../../../../avr32/lib/ucr3fp\libc.a(lib_a-findfp.o)
 .data          0x00003330        0x0 d:/programmes/atmel/studio/7.0/toolchain/avr32/avr32-gnu-toolchain/bin/../lib/gcc/avr32/4.4.7/../../../../avr32/lib/ucr3fp\libc.a(lib_a-freer.o)
 .data          0x00003330        0x0 d:/programmes/atmel/studio/7.0/toolchain/avr32/avr32-gnu-toolchain/bin/../lib/gcc/avr32/4.4.7/../../../../avr32/lib/ucr3fp\libc.a(lib_a-fvwrite.o)
 .data          0x00003330        0x0 d:/programmes/atmel/studio/7.0/toolchain/avr32/avr32-gnu-toolchain/bin/../lib/gcc/avr32/4.4.7/../../../../avr32/lib/ucr3fp\libc.a(lib_a-fwalk.o)
 .data          0x00003330        0x0 d:/programmes/atmel/studio/7.0/toolchain/avr32/avr32-gnu-toolchain/bin/../lib/gcc/avr32/4.4.7/../../../../avr32/lib/ucr3fp\libc.a(lib_a-locale.o)
 .data.__lc_ctype
                0x00003330        0xc d:/programmes/atmel/studio/7.0/toolchain/avr32/avr32-gnu-toolchain/bin/../lib/gcc/avr32/4.4.7/../../../../avr32/lib/ucr3fp\libc.a(lib_a-locale.o)
                0x00003330                __lc_ctype
 .data.__mb_cur_max
                0x0000333c        0x4 d:/programmes/atmel/studio/7.0/toolchain/avr32/avr32-gnu-toolchain/bin/../lib/gcc/avr32/4.4.7/../../../../avr32/lib/ucr3fp\libc.a(lib_a-locale.o)
                0x0000333c                __mb_cur_max
 .data          0x00003340        0x0 d:/programmes/atmel/studio/7.0/toolchain/avr32/avr32-gnu-toolchain/bin/../lib/gcc/avr32/4.4.7/../../../../avr32/lib/ucr3fp\libc.a(lib_a-makebuf.o)
 .data          0x00003340        0x0 d:/programmes/atmel/studio/7.0/toolchain/avr32/avr32-gnu-toolchain/bin/../lib/gcc/avr32/4.4.7/../../../../avr32/lib/ucr3fp\libc.a(lib_a-memchr.o)
 .data          0x00003340        0x0 d:/programmes/atmel/studio/7.0/toolchain/avr32/avr32-gnu-toolchain/bin/../lib/gcc/avr32/4.4.7/../../../../avr32/lib/ucr3fp\libc.a(lib_a-memmove.o)
 .data          0x00003340        0x0 d:/programmes/atmel/studio/7.0/toolchain/avr32/avr32-gnu-toolchain/bin/../lib/gcc/avr32/4.4.7/../../../../avr32/lib/ucr3fp\libc.a(lib_a-mprec.o)
 .data          0x00003340        0x0 d:/programmes/atmel/studio/7.0/toolchain/avr32/avr32-gnu-toolchain/bin/../lib/gcc/avr32/4.4.7/../../../../avr32/lib/ucr3fp\libc.a(lib_a-reallocr.o)
 .data          0x00003340        0x0 d:/programmes/atmel/studio/7.0/toolchain/avr32/avr32-gnu-toolchain/bin/../lib/gcc/avr32/4.4.7/../../../../avr32/lib/ucr3fp\libc.a(lib_a-reent.o)
 .data          0x00003340        0x0 d:/programmes/atmel/studio/7.0/toolchain/avr32/avr32-gnu-toolchain/bin/../lib/gcc/avr32/4.4.7/../../../../avr32/lib/ucr3fp\libc.a(lib_a-s_isinfd.o)
 .data          0x00003340        0x0 d:/programmes/atmel/studio/7.0/toolchain/avr32/avr32-gnu-toolchain/bin/../lib/gcc/avr32/4.4.7/../../../../avr32/lib/ucr3fp\libc.a(lib_a-stdio.o)
 .data          0x00003340        0x0 d:/programmes/atmel/studio/7.0/toolchain/avr32/avr32-gnu-toolchain/bin/../lib/gcc/avr32/4.4.7/../../../../avr32/lib/ucr3fp\libc.a(lib_a-strcmp.o)
 .data          0x00003340        0x0 d:/programmes/atmel/studio/7.0/toolchain/avr32/avr32-gnu-toolchain/bin/../lib/gcc/avr32/4.4.7/../../../../avr32/lib/ucr3fp\libc.a(lib_a-writer.o)
 .data          0x00003340        0x0 d:/programmes/atmel/studio/7.0/toolchain/avr32/avr32-gnu-toolchain/bin/../lib/gcc/avr32/4.4.7/../../../../avr32/lib/ucr3fp\libc.a(lib_a-callocr.o)
 .data          0x00003340        0x0 d:/programmes/atmel/studio/7.0/toolchain/avr32/avr32-gnu-toolchain/bin/../lib/gcc/avr32/4.4.7/../../../../avr32/lib/ucr3fp\libc.a(lib_a-closer.o)
 .data          0x00003340        0x0 d:/programmes/atmel/studio/7.0/toolchain/avr32/avr32-gnu-toolchain/bin/../lib/gcc/avr32/4.4.7/../../../../avr32/lib/ucr3fp\libc.a(lib_a-fclose.o)
 .data          0x00003340        0x0 d:/programmes/atmel/studio/7.0/toolchain/avr32/avr32-gnu-toolchain/bin/../lib/gcc/avr32/4.4.7/../../../../avr32/lib/ucr3fp\libc.a(lib_a-fstatr.o)
 .data          0x00003340        0x0 d:/programmes/atmel/studio/7.0/toolchain/avr32/avr32-gnu-toolchain/bin/../lib/gcc/avr32/4.4.7/../../../../avr32/lib/ucr3fp\libc.a(lib_a-lseekr.o)
 .data          0x00003340        0x0 d:/programmes/atmel/studio/7.0/toolchain/avr32/avr32-gnu-toolchain/bin/../lib/gcc/avr32/4.4.7/../../../../avr32/lib/ucr3fp\libc.a(lib_a-readr.o)
 *(.gnu.linkonce.d.*personality*)

.data1
 *(.data1)

.balign         0x00003340        0x0 load address 0x8004669c
                0x00003340                . = ALIGN (0x8)
                0x00003340                _edata = .
                0x00003340                _edata = .
                0x00003340                PROVIDE (edata, .)
                0x00003340                __bss_start = .

.bss            0x00003340     0x8a60 load address 0x800466a0
 *(.dynbss)
 *(.bss .bss.* .gnu.linkonce.b.*)
 .bss           0x00003340        0x0 Library/communication/console.o
 .bss           0x00003340        0x0 Library/communication/data_logging.o
 .bss           0x00003340        0x0 Library/communication/data_logging_telemetry.o
 .bss           0x00003340       0x40 Library/communication/hud_telemetry.o
 .bss           0x00003380        0x0 Library/communication/mavlink_communication.o
 .bss           0x00003380       0x40 Library/communication/mavlink_message_handler.o
 .bss           0x000033c0       0x40 Library/communication/mavlink_waypoint_handler.o
 .bss           0x00003400        0x0 Library/communication/remote.o
 .bss           0x00003400       0x40 Library/communication/remote_telemetry.o
 .bss           0x00003440        0x0 Library/communication/state.o
 .bss           0x00003440        0x0 Library/communication/state_machine.o
 .bss           0x00003440       0x40 Library/communication/state_telemetry.o
 .bss           0x00003480        0x0 Library/control/adaptive_parameter.o
 .bss           0x00003480        0x0 Library/control/altitude_controller.o
 .bss           0x00003480        0x0 Library/control/attitude_controller.o
 .bss           0x00003480        0x0 Library/control/attitude_controller_p2.o
 .bss           0x00003480        0x0 Library/control/attitude_error_estimator.o
 .bss           0x00003480        0x0 Library/control/joystick_parsing.o
 .bss           0x00003480       0x40 Library/control/joystick_parsing_telemetry.o
 .bss           0x000034c0        0x0 Library/control/pid_controller.o
 .bss           0x000034c0        0x0 Library/control/servos_mix_quadcopter_cross.o
 .bss           0x000034c0        0x0 Library/control/servos_mix_quadcopter_diag.o
 .bss           0x000034c0        0x0 Library/control/stabilisation_copter.o
 .bss           0x000034c0       0x40 Library/control/stabilisation_telemetry.o
 .bss           0x00003500        0x0 Library/control/vector_field_waypoint.o
 .bss           0x00003500        0x0 Library/control/velocity_controller_copter.o
 .bss           0x00003500       0x40 Library/hal/analog_monitor_telemetry.o
 .bss           0x00003540        0x0 Library/hal/analog_monitor.o
 .bss           0x00003540       0x40 Library/hal/bmp085_telemetry.o
 .bss           0x00003580        0x0 Library/hal/fat_fs/diskio.o
 .bss           0x00003580        0x8 Library/hal/fat_fs/ff.o
 .bss           0x00003588        0x0 Library/hal/fat_fs/option/ccsbcs.o
 .bss           0x00003588        0x0 Library/hal/fat_fs/option/syscall.o
 .bss           0x00003588        0x0 Library/hal/fat_fs/option/unicode.o
 .bss           0x00003588       0x2c Library/hal/gps_ublox.o
                0x00003588                ubx_current_message
                0x0000358c                ubx_last_message
                0x00003590                ubx_valid_message
                0x00003594                ubx_number_of_valid_pos_llh_message
                0x00003596                ubx_number_of_valid_status_message
                0x00003598                ubx_number_of_valid_solution_message
                0x0000359a                ubx_number_of_valid_vel_ned_message
                0x0000359c                ubx_number_of_valid_sv_info_message
                0x0000359e                ubx_number_of_valid_nav_settings_message
                0x000035a0                ubx_number_of_valid_cfg_rate_message
                0x000035a2                ubx_number_of_valid_cfg_set_get_rate_message
                0x000035a4                ubx_number_of_valid_mon_rxr_message
                0x000035a6                ubx_number_of_valid_tim_tp_message
                0x000035a8                ubx_number_of_valid_tim_vrfy_message
                0x000035aa                print_nav_on_debug
                0x000035ab                loop_pos_llh
                0x000035ac                loop_vel_ned
                0x000035ad                loop_status
                0x000035ae                loop_solution
                0x000035af                loop_tim_tp
                0x000035b0                loop_tim_vrfy
 .bss           0x000035b4       0x40 Library/hal/gps_ublox_telemetry.o
 .bss           0x000035f4        0x0 Library/hal/hmc5883l.o
 .bss           0x000035f4        0x0 Library/hal/i2c_driver_int.o
 .bss           0x000035f4        0x0 Library/hal/lsm330dlc.o
 .bss           0x000035f4        0x0 Library/hal/piezo_speaker.o
 .bss           0x000035f4        0x0 Library/hal/pwm_servos.o
 .bss           0x000035f4        0x4 Library/hal/sd_spi.o
 .bss           0x000035f8        0x0 Library/hal/servos.o
 .bss           0x000035f8       0x40 Library/hal/servos_telemetry.o
 .bss           0x00003638        0x0 Library/hal/sonar_i2cxl.o
 .bss           0x00003638       0x40 Library/hal/sonar_telemetry.o
 .bss           0x00003678        0x0 Library/hal/spektrum_satellite.o
 .bss           0x00003678        0x0 Library/hal/time_keeper.o
 .bss           0x00003678        0xc Library/hal/usb_int.o
 .bss           0x00003684        0x0 Library/hal/xbee.o
 .bss           0x00003684       0x40 Library/runtime/scheduler_telemetry.o
 .bss           0x000036c4        0x0 Library/sensing/ahrs.o
 .bss           0x000036c4       0x40 Library/sensing/ahrs_telemetry.o
 .bss           0x00003704        0x0 Library/sensing/altitude_estimation.o
 .bss           0x00003704       0x40 Library/sensing/imu_telemetry.o
 .bss           0x00003744        0x0 Library/sensing/position_estimation.o
 .bss           0x00003744       0x40 Library/sensing/position_estimation_telemetry.o
 .bss           0x00003784        0x0 Library/sensing/qfilter.o
 .bss           0x00003784       0x40 Library/sensing/simulation_telemetry.o
 .bss           0x000037c4        0x0 Library/util/linear_algebra.o
 .bss           0x000037c4        0x0 Library/util/matrixlib_float.o
 .bss           0x000037c4        0x0 Library/util/quick_trig.o
 .bss           0x000037c4     0x1970 src/central_data.o
 .bss           0x00005134        0x0 src/mavlink_telemetry.o
 .bss           0x00005134        0x0 src/tasks.o
 .bss           0x00005134      0x480 Library/communication/mavlink_stream.o
 .bss           0x000055b4       0x40 Library/communication/onboard_parameters.o
 .bss           0x000055f4       0x40 Library/control/navigation.o
 .bss           0x00005634        0x0 Library/control/stabilisation.o
 .bss           0x00005634       0x64 Library/hal/adc_int.o
 .bss           0x00005698     0x400c Library/hal/ads1274.o
 .bss           0x000096a4        0x0 Library/hal/bmp085.o
 .bss           0x000096a4        0xc Library/hal/dac_dma.o
 .bss           0x000096b0        0x0 Library/hal/led.o
 .bss           0x000096b0       0xa8 Library/hal/spi_buffered.o
 .bss           0x00009758      0xac8 Library/hal/uart_int.o
 .bss           0x0000a220        0x0 Library/runtime/scheduler.o
 .bss           0x0000a220        0x0 Library/sensing/imu.o
 .bss           0x0000a220        0x0 Library/sensing/simulation.o
 .bss           0x0000a220        0x0 Library/util/buffer.o
 .bss           0x0000a220        0x0 Library/util/coord_conventions.o
 .bss           0x0000a220      0x400 Library/util/generator.o
 .bss           0x0000a620        0x0 Library/util/print_util.o
 .bss           0x0000a620        0x0 Library/util/sinus.o
 .bss           0x0000a620        0x0 src/asf/avr32/drivers/adcifa/adcifa.o
 .bss           0x0000a620        0x0 src/asf/avr32/drivers/ast/ast.o
 .bss           0x0000a620        0x0 src/asf/avr32/drivers/dacifb/dacifb.o
 .bss           0x0000a620        0x0 src/asf/avr32/drivers/eic/eic.o
 .bss           0x0000a620        0x4 src/asf/avr32/drivers/flashc/flashc.o
 .bss           0x0000a624        0x0 src/asf/avr32/drivers/gpio/gpio.o
 .bss           0x0000a624        0x0 src/asf/avr32/drivers/intc/exception.o
 .bss           0x0000a624      0x1c8 src/asf/avr32/drivers/intc/intc.o
 .bss           0x0000a7ec        0x0 src/asf/avr32/drivers/pdca/pdca.o
 .bss           0x0000a7ec        0x0 src/asf/avr32/drivers/pevc/pevc.o
 .bss           0x0000a7ec        0x0 src/asf/avr32/drivers/pm/pm_uc3c.o
 .bss           0x0000a7ec        0x0 src/asf/avr32/drivers/pm/power_clocks_lib.o
 .bss           0x0000a7ec        0x0 src/asf/avr32/drivers/pwm/pwm4.o
 .bss           0x0000a7ec        0x0 src/asf/avr32/drivers/scif/scif_uc3c.o
 .bss           0x0000a7ec        0x0 src/asf/avr32/drivers/spi/spi.o
 .bss           0x0000a7ec        0x0 src/asf/avr32/drivers/tc/tc.o
 .bss           0x0000a7ec       0x24 src/asf/avr32/drivers/twim/twim.o
 .bss           0x0000a810        0x0 src/asf/avr32/drivers/usart/usart.o
 *fill*         0x0000a810       0x10 
 .bss           0x0000a820       0xe0 src/asf/avr32/drivers/usbc/usbc_device.o
 .bss           0x0000a900        0x4 src/asf/avr32/services/delay/delay.o
 .bss           0x0000a904        0x0 src/asf/avr32/utils/startup/startup_uc3.o
 .bss           0x0000a904        0x0 src/asf/avr32/utils/startup/trampoline_uc3.o
 .bss           0x0000a904        0x0 src/asf/common/boards/user_board/init.o
 .bss           0x0000a904        0x0 src/asf/common/services/clock/uc3c/osc.o
 .bss           0x0000a904        0x0 src/asf/common/services/clock/uc3c/pll.o
 .bss           0x0000a904        0x0 src/asf/common/services/clock/uc3c/sysclk.o
 .bss           0x0000a904        0x0 src/asf/common/services/sleepmgr/uc3/sleepmgr.o
 .bss           0x0000a904        0x0 src/asf/common/services/spi/uc3_spi/spi_master.o
 .bss           0x0000a904      0x128 src/asf/common/services/usb/class/cdc/device/udi_cdc.o
 .bss           0x0000aa2c        0x0 src/asf/common/services/usb/class/cdc/device/udi_cdc_desc.o
 .bss           0x0000aa2c       0x14 src/asf/common/services/usb/udc/udc.o
 .bss           0x0000aa40        0x0 src/asf/common/utils/stdio/read.o
 .bss           0x0000aa40        0x1 src/asf/common/utils/stdio/stdio_usb/stdio_usb.o
 .bss           0x0000aa41        0x0 src/asf/common/utils/stdio/write.o
 .bss           0x0000aa41        0x0 src/boardsupport.o
 *fill*         0x0000aa41        0x3 
 .bss           0x0000aa44       0x50 src/main.o
                0x0000aa44                nav_settings
                0x0000aa68                cksum_a
                0x0000aa69                cksum_b
                0x0000aa6a                step
                0x0000aa6b                msg_id
                0x0000aa6c                payload_length
                0x0000aa6e                payload_counter
                0x0000aa70                ubx_class
                0x0000aa71                new_position
                0x0000aa72                new_speed
                0x0000aa73                disable_counter
                0x0000aa74                next_fix
                0x0000aa75                have_raw_velocity
                0x0000aa78                engine_nav_setting
                0x0000aa7c                idle_timer
                0x0000aa80                idle_timeout
                0x0000aa84                last_fix_time
                0x0000aa88                satellite_init
                0x0000aa8c                satellite_bind
                0x0000aa90                central_data
 .bss           0x0000aa94        0x0 d:/programmes/atmel/studio/7.0/toolchain/avr32/avr32-gnu-toolchain/bin/../lib/gcc/avr32/4.4.7/../../../../avr32/lib/ucr3fp\libm.a(lib_a-s_cos.o)
 .bss           0x0000aa94        0x0 d:/programmes/atmel/studio/7.0/toolchain/avr32/avr32-gnu-toolchain/bin/../lib/gcc/avr32/4.4.7/../../../../avr32/lib/ucr3fp\libm.a(lib_a-s_floor.o)
 .bss           0x0000aa94        0x0 d:/programmes/atmel/studio/7.0/toolchain/avr32/avr32-gnu-toolchain/bin/../lib/gcc/avr32/4.4.7/../../../../avr32/lib/ucr3fp\libm.a(lib_a-s_sin.o)
 .bss           0x0000aa94        0x0 d:/programmes/atmel/studio/7.0/toolchain/avr32/avr32-gnu-toolchain/bin/../lib/gcc/avr32/4.4.7/../../../../avr32/lib/ucr3fp\libm.a(lib_a-w_asin.o)
 .bss           0x0000aa94        0x0 d:/programmes/atmel/studio/7.0/toolchain/avr32/avr32-gnu-toolchain/bin/../lib/gcc/avr32/4.4.7/../../../../avr32/lib/ucr3fp\libm.a(lib_a-w_atan2.o)
 .bss           0x0000aa94        0x0 d:/programmes/atmel/studio/7.0/toolchain/avr32/avr32-gnu-toolchain/bin/../lib/gcc/avr32/4.4.7/../../../../avr32/lib/ucr3fp\libm.a(lib_a-w_fmod.o)
 .bss           0x0000aa94        0x0 d:/programmes/atmel/studio/7.0/toolchain/avr32/avr32-gnu-toolchain/bin/../lib/gcc/avr32/4.4.7/../../../../avr32/lib/ucr3fp\libm.a(lib_a-w_pow.o)
 .bss           0x0000aa94        0x0 d:/programmes/atmel/studio/7.0/toolchain/avr32/avr32-gnu-toolchain/bin/../lib/gcc/avr32/4.4.7/../../../../avr32/lib/ucr3fp\libm.a(lib_a-w_sqrt.o)
 .bss           0x0000aa94        0x0 d:/programmes/atmel/studio/7.0/toolchain/avr32/avr32-gnu-toolchain/bin/../lib/gcc/avr32/4.4.7/../../../../avr32/lib/ucr3fp\libm.a(lib_a-wf_sqrt.o)
 .bss           0x0000aa94        0x0 d:/programmes/atmel/studio/7.0/toolchain/avr32/avr32-gnu-toolchain/bin/../lib/gcc/avr32/4.4.7/../../../../avr32/lib/ucr3fp\libm.a(lib_a-e_asin.o)
 .bss           0x0000aa94        0x0 d:/programmes/atmel/studio/7.0/toolchain/avr32/avr32-gnu-toolchain/bin/../lib/gcc/avr32/4.4.7/../../../../avr32/lib/ucr3fp\libm.a(lib_a-e_atan2.o)
 .bss           0x0000aa94        0x0 d:/programmes/atmel/studio/7.0/toolchain/avr32/avr32-gnu-toolchain/bin/../lib/gcc/avr32/4.4.7/../../../../avr32/lib/ucr3fp\libm.a(lib_a-e_fmod.o)
 .bss           0x0000aa94        0x0 d:/programmes/atmel/studio/7.0/toolchain/avr32/avr32-gnu-toolchain/bin/../lib/gcc/avr32/4.4.7/../../../../avr32/lib/ucr3fp\libm.a(lib_a-e_pow.o)
 .bss           0x0000aa94        0x0 d:/programmes/atmel/studio/7.0/toolchain/avr32/avr32-gnu-toolchain/bin/../lib/gcc/avr32/4.4.7/../../../../avr32/lib/ucr3fp\libm.a(lib_a-e_rem_pio2.o)
 .bss           0x0000aa94        0x0 d:/programmes/atmel/studio/7.0/toolchain/avr32/avr32-gnu-toolchain/bin/../lib/gcc/avr32/4.4.7/../../../../avr32/lib/ucr3fp\libm.a(lib_a-e_sqrt.o)
 .bss           0x0000aa94        0x0 d:/programmes/atmel/studio/7.0/toolchain/avr32/avr32-gnu-toolchain/bin/../lib/gcc/avr32/4.4.7/../../../../avr32/lib/ucr3fp\libm.a(lib_a-ef_sqrt.o)
 .bss           0x0000aa94        0x0 d:/programmes/atmel/studio/7.0/toolchain/avr32/avr32-gnu-toolchain/bin/../lib/gcc/avr32/4.4.7/../../../../avr32/lib/ucr3fp\libm.a(lib_a-k_cos.o)
 .bss           0x0000aa94        0x0 d:/programmes/atmel/studio/7.0/toolchain/avr32/avr32-gnu-toolchain/bin/../lib/gcc/avr32/4.4.7/../../../../avr32/lib/ucr3fp\libm.a(lib_a-k_rem_pio2.o)
 .bss           0x0000aa94        0x0 d:/programmes/atmel/studio/7.0/toolchain/avr32/avr32-gnu-toolchain/bin/../lib/gcc/avr32/4.4.7/../../../../avr32/lib/ucr3fp\libm.a(lib_a-k_sin.o)
 .bss           0x0000aa94        0x0 d:/programmes/atmel/studio/7.0/toolchain/avr32/avr32-gnu-toolchain/bin/../lib/gcc/avr32/4.4.7/../../../../avr32/lib/ucr3fp\libm.a(lib_a-s_atan.o)
 .bss           0x0000aa94        0x0 d:/programmes/atmel/studio/7.0/toolchain/avr32/avr32-gnu-toolchain/bin/../lib/gcc/avr32/4.4.7/../../../../avr32/lib/ucr3fp\libm.a(lib_a-s_fabs.o)
 .bss           0x0000aa94        0x0 d:/programmes/atmel/studio/7.0/toolchain/avr32/avr32-gnu-toolchain/bin/../lib/gcc/avr32/4.4.7/../../../../avr32/lib/ucr3fp\libm.a(lib_a-s_finite.o)
 .bss           0x0000aa94        0x0 d:/programmes/atmel/studio/7.0/toolchain/avr32/avr32-gnu-toolchain/bin/../lib/gcc/avr32/4.4.7/../../../../avr32/lib/ucr3fp\libm.a(lib_a-s_isnand.o)
 .bss           0x0000aa94        0x0 d:/programmes/atmel/studio/7.0/toolchain/avr32/avr32-gnu-toolchain/bin/../lib/gcc/avr32/4.4.7/../../../../avr32/lib/ucr3fp\libm.a(lib_a-s_lib_ver.o)
 .bss           0x0000aa94        0x0 d:/programmes/atmel/studio/7.0/toolchain/avr32/avr32-gnu-toolchain/bin/../lib/gcc/avr32/4.4.7/../../../../avr32/lib/ucr3fp\libm.a(lib_a-s_matherr.o)
 .bss           0x0000aa94        0x0 d:/programmes/atmel/studio/7.0/toolchain/avr32/avr32-gnu-toolchain/bin/../lib/gcc/avr32/4.4.7/../../../../avr32/lib/ucr3fp\libm.a(lib_a-s_nan.o)
 .bss           0x0000aa94        0x0 d:/programmes/atmel/studio/7.0/toolchain/avr32/avr32-gnu-toolchain/bin/../lib/gcc/avr32/4.4.7/../../../../avr32/lib/ucr3fp\libm.a(lib_a-s_rint.o)
 .bss           0x0000aa94        0x0 d:/programmes/atmel/studio/7.0/toolchain/avr32/avr32-gnu-toolchain/bin/../lib/gcc/avr32/4.4.7/../../../../avr32/lib/ucr3fp\libm.a(lib_a-s_scalbn.o)
 .bss           0x0000aa94        0x0 d:/programmes/atmel/studio/7.0/toolchain/avr32/avr32-gnu-toolchain/bin/../lib/gcc/avr32/4.4.7/../../../../avr32/lib/ucr3fp\libm.a(lib_a-sf_isnan.o)
 .bss           0x0000aa94        0x0 d:/programmes/atmel/studio/7.0/toolchain/avr32/avr32-gnu-toolchain/bin/../lib/gcc/avr32/4.4.7/../../../../avr32/lib/ucr3fp\libm.a(lib_a-s_copysign.o)
 .bss           0x0000aa94        0x0 d:/programmes/atmel/studio/7.0/toolchain/avr32/avr32-gnu-toolchain/bin/../lib/gcc/avr32/4.4.7/ucr3fp\libgcc.a(_avr32_f64_mul.o)
 .bss           0x0000aa94        0x0 d:/programmes/atmel/studio/7.0/toolchain/avr32/avr32-gnu-toolchain/bin/../lib/gcc/avr32/4.4.7/ucr3fp\libgcc.a(_avr32_f64_addsub.o)
 .bss           0x0000aa94        0x0 d:/programmes/atmel/studio/7.0/toolchain/avr32/avr32-gnu-toolchain/bin/../lib/gcc/avr32/4.4.7/ucr3fp\libgcc.a(_avr32_f64_to_s32.o)
 .bss           0x0000aa94        0x0 d:/programmes/atmel/studio/7.0/toolchain/avr32/avr32-gnu-toolchain/bin/../lib/gcc/avr32/4.4.7/ucr3fp\libgcc.a(_avr32_f64_to_s64.o)
 .bss           0x0000aa94        0x0 d:/programmes/atmel/studio/7.0/toolchain/avr32/avr32-gnu-toolchain/bin/../lib/gcc/avr32/4.4.7/ucr3fp\libgcc.a(_avr32_s32_to_f64.o)
 .bss           0x0000aa94        0x0 d:/programmes/atmel/studio/7.0/toolchain/avr32/avr32-gnu-toolchain/bin/../lib/gcc/avr32/4.4.7/ucr3fp\libgcc.a(_avr32_f64_cmp_eq.o)
 .bss           0x0000aa94        0x0 d:/programmes/atmel/studio/7.0/toolchain/avr32/avr32-gnu-toolchain/bin/../lib/gcc/avr32/4.4.7/ucr3fp\libgcc.a(_avr32_f64_cmp_ge.o)
 .bss           0x0000aa94        0x0 d:/programmes/atmel/studio/7.0/toolchain/avr32/avr32-gnu-toolchain/bin/../lib/gcc/avr32/4.4.7/ucr3fp\libgcc.a(_avr32_f64_cmp_lt.o)
 .bss           0x0000aa94        0x0 d:/programmes/atmel/studio/7.0/toolchain/avr32/avr32-gnu-toolchain/bin/../lib/gcc/avr32/4.4.7/ucr3fp\libgcc.a(_avr32_f32_cmp_lt.o)
 .bss           0x0000aa94        0x0 d:/programmes/atmel/studio/7.0/toolchain/avr32/avr32-gnu-toolchain/bin/../lib/gcc/avr32/4.4.7/ucr3fp\libgcc.a(_avr32_f64_div.o)
 .bss           0x0000aa94        0x0 d:/programmes/atmel/studio/7.0/toolchain/avr32/avr32-gnu-toolchain/bin/../lib/gcc/avr32/4.4.7/ucr3fp\libgcc.a(_avr32_f32_div.o)
 .bss           0x0000aa94        0x0 d:/programmes/atmel/studio/7.0/toolchain/avr32/avr32-gnu-toolchain/bin/../lib/gcc/avr32/4.4.7/ucr3fp\libgcc.a(_avr32_f32_addsub.o)
 .bss           0x0000aa94        0x0 d:/programmes/atmel/studio/7.0/toolchain/avr32/avr32-gnu-toolchain/bin/../lib/gcc/avr32/4.4.7/ucr3fp\libgcc.a(_avr32_f32_mul.o)
 .bss           0x0000aa94        0x0 d:/programmes/atmel/studio/7.0/toolchain/avr32/avr32-gnu-toolchain/bin/../lib/gcc/avr32/4.4.7/ucr3fp\libgcc.a(_avr32_f32_to_f64.o)
 .bss           0x0000aa94        0x0 d:/programmes/atmel/studio/7.0/toolchain/avr32/avr32-gnu-toolchain/bin/../lib/gcc/avr32/4.4.7/ucr3fp\libgcc.a(_avr32_f64_to_f32.o)
 .bss           0x0000aa94        0x0 d:/programmes/atmel/studio/7.0/toolchain/avr32/avr32-gnu-toolchain/bin/../lib/gcc/avr32/4.4.7/ucr3fp\libgcc.a(_floatdidf.o)
 .bss           0x0000aa94        0x0 d:/programmes/atmel/studio/7.0/toolchain/avr32/avr32-gnu-toolchain/bin/../lib/gcc/avr32/4.4.7/ucr3fp\libgcc.a(_divdi3.o)
 .bss           0x0000aa94        0x0 d:/programmes/atmel/studio/7.0/toolchain/avr32/avr32-gnu-toolchain/bin/../lib/gcc/avr32/4.4.7/ucr3fp\libgcc.a(_moddi3.o)
 .bss           0x0000aa94        0x0 d:/programmes/atmel/studio/7.0/toolchain/avr32/avr32-gnu-toolchain/bin/../lib/gcc/avr32/4.4.7/ucr3fp\libgcc.a(_udivdi3.o)
 .bss           0x0000aa94        0x0 d:/programmes/atmel/studio/7.0/toolchain/avr32/avr32-gnu-toolchain/bin/../lib/gcc/avr32/4.4.7/ucr3fp\libgcc.a(_umoddi3.o)
 .bss           0x0000aa94        0x0 d:/programmes/atmel/studio/7.0/toolchain/avr32/avr32-gnu-toolchain/bin/../lib/gcc/avr32/4.4.7/../../../../avr32/lib/ucr3fp\libc.a(lib_a-errno.o)
 .bss           0x0000aa94        0x0 d:/programmes/atmel/studio/7.0/toolchain/avr32/avr32-gnu-toolchain/bin/../lib/gcc/avr32/4.4.7/../../../../avr32/lib/ucr3fp\libc.a(lib_a-impure.o)
 .bss           0x0000aa94        0x0 d:/programmes/atmel/studio/7.0/toolchain/avr32/avr32-gnu-toolchain/bin/../lib/gcc/avr32/4.4.7/../../../../avr32/lib/ucr3fp\libc.a(lib_a-malloc.o)
 .bss           0x0000aa94        0x0 d:/programmes/atmel/studio/7.0/toolchain/avr32/avr32-gnu-toolchain/bin/../lib/gcc/avr32/4.4.7/../../../../avr32/lib/ucr3fp\libc.a(lib_a-mallocr.o)
 .bss.__malloc_max_total_mem
                0x0000aa94        0x4 d:/programmes/atmel/studio/7.0/toolchain/avr32/avr32-gnu-toolchain/bin/../lib/gcc/avr32/4.4.7/../../../../avr32/lib/ucr3fp\libc.a(lib_a-mallocr.o)
                0x0000aa94                __malloc_max_total_mem
 .bss.__malloc_max_sbrked_mem
                0x0000aa98        0x4 d:/programmes/atmel/studio/7.0/toolchain/avr32/avr32-gnu-toolchain/bin/../lib/gcc/avr32/4.4.7/../../../../avr32/lib/ucr3fp\libc.a(lib_a-mallocr.o)
                0x0000aa98                __malloc_max_sbrked_mem
 .bss.__malloc_top_pad
                0x0000aa9c        0x4 d:/programmes/atmel/studio/7.0/toolchain/avr32/avr32-gnu-toolchain/bin/../lib/gcc/avr32/4.4.7/../../../../avr32/lib/ucr3fp\libc.a(lib_a-mallocr.o)
                0x0000aa9c                __malloc_top_pad
 .bss.__malloc_current_mallinfo
                0x0000aaa0       0x28 d:/programmes/atmel/studio/7.0/toolchain/avr32/avr32-gnu-toolchain/bin/../lib/gcc/avr32/4.4.7/../../../../avr32/lib/ucr3fp\libc.a(lib_a-mallocr.o)
                0x0000aaa0                __malloc_current_mallinfo
 .bss           0x0000aac8        0x0 d:/programmes/atmel/studio/7.0/toolchain/avr32/avr32-gnu-toolchain/bin/../lib/gcc/avr32/4.4.7/../../../../avr32/lib/ucr3fp\libc.a(lib_a-memcpy.o)
 .bss           0x0000aac8        0x0 d:/programmes/atmel/studio/7.0/toolchain/avr32/avr32-gnu-toolchain/bin/../lib/gcc/avr32/4.4.7/../../../../avr32/lib/ucr3fp\libc.a(lib_a-memset.o)
 .bss           0x0000aac8        0x0 d:/programmes/atmel/studio/7.0/toolchain/avr32/avr32-gnu-toolchain/bin/../lib/gcc/avr32/4.4.7/../../../../avr32/lib/ucr3fp\libc.a(lib_a-mlock.o)
 .bss           0x0000aac8        0x0 d:/programmes/atmel/studio/7.0/toolchain/avr32/avr32-gnu-toolchain/bin/../lib/gcc/avr32/4.4.7/../../../../avr32/lib/ucr3fp\libc.a(lib_a-rand.o)
 .bss           0x0000aac8        0x0 d:/programmes/atmel/studio/7.0/toolchain/avr32/avr32-gnu-toolchain/bin/../lib/gcc/avr32/4.4.7/../../../../avr32/lib/ucr3fp\libc.a(lib_a-sbrkr.o)
 .bss           0x0000aac8        0x0 d:/programmes/atmel/studio/7.0/toolchain/avr32/avr32-gnu-toolchain/bin/../lib/gcc/avr32/4.4.7/../../../../avr32/lib/ucr3fp\libc.a(lib_a-snprintf.o)
 .bss           0x0000aac8        0x0 d:/programmes/atmel/studio/7.0/toolchain/avr32/avr32-gnu-toolchain/bin/../lib/gcc/avr32/4.4.7/../../../../avr32/lib/ucr3fp\libc.a(lib_a-strcpy.o)
 .bss           0x0000aac8        0x0 d:/programmes/atmel/studio/7.0/toolchain/avr32/avr32-gnu-toolchain/bin/../lib/gcc/avr32/4.4.7/../../../../avr32/lib/ucr3fp\libc.a(lib_a-strlen.o)
 .bss           0x0000aac8        0x0 d:/programmes/atmel/studio/7.0/toolchain/avr32/avr32-gnu-toolchain/bin/../lib/gcc/avr32/4.4.7/../../../../avr32/lib/ucr3fp\libc.a(lib_a-syscalls.o)
 .bss.cur_heap_pos.1869
                0x0000aac8        0x4 d:/programmes/atmel/studio/7.0/toolchain/avr32/avr32-gnu-toolchain/bin/../lib/gcc/avr32/4.4.7/../../../../avr32/lib/ucr3fp\libc.a(lib_a-syscalls.o)
 .bss           0x0000aacc        0x0 d:/programmes/atmel/studio/7.0/toolchain/avr32/avr32-gnu-toolchain/bin/../lib/gcc/avr32/4.4.7/../../../../avr32/lib/ucr3fp\libc.a(lib_a-vfprintf.o)
 .bss           0x0000aacc        0x0 d:/programmes/atmel/studio/7.0/toolchain/avr32/avr32-gnu-toolchain/bin/../lib/gcc/avr32/4.4.7/../../../../avr32/lib/ucr3fp\libc.a(lib_a-wsetup.o)
 .bss           0x0000aacc        0x0 d:/programmes/atmel/studio/7.0/toolchain/avr32/avr32-gnu-toolchain/bin/../lib/gcc/avr32/4.4.7/../../../../avr32/lib/ucr3fp\libc.a(lib_a-dtoa.o)
 .bss           0x0000aacc        0x0 d:/programmes/atmel/studio/7.0/toolchain/avr32/avr32-gnu-toolchain/bin/../lib/gcc/avr32/4.4.7/../../../../avr32/lib/ucr3fp\libc.a(lib_a-fflush.o)
 .bss           0x0000aacc        0x0 d:/programmes/atmel/studio/7.0/toolchain/avr32/avr32-gnu-toolchain/bin/../lib/gcc/avr32/4.4.7/../../../../avr32/lib/ucr3fp\libc.a(lib_a-findfp.o)
 .bss           0x0000aacc        0x0 d:/programmes/atmel/studio/7.0/toolchain/avr32/avr32-gnu-toolchain/bin/../lib/gcc/avr32/4.4.7/../../../../avr32/lib/ucr3fp\libc.a(lib_a-freer.o)
 .bss           0x0000aacc        0x0 d:/programmes/atmel/studio/7.0/toolchain/avr32/avr32-gnu-toolchain/bin/../lib/gcc/avr32/4.4.7/../../../../avr32/lib/ucr3fp\libc.a(lib_a-fvwrite.o)
 .bss           0x0000aacc        0x0 d:/programmes/atmel/studio/7.0/toolchain/avr32/avr32-gnu-toolchain/bin/../lib/gcc/avr32/4.4.7/../../../../avr32/lib/ucr3fp\libc.a(lib_a-fwalk.o)
 .bss           0x0000aacc        0x0 d:/programmes/atmel/studio/7.0/toolchain/avr32/avr32-gnu-toolchain/bin/../lib/gcc/avr32/4.4.7/../../../../avr32/lib/ucr3fp\libc.a(lib_a-locale.o)
 .bss.__nlocale_changed
                0x0000aacc        0x4 d:/programmes/atmel/studio/7.0/toolchain/avr32/avr32-gnu-toolchain/bin/../lib/gcc/avr32/4.4.7/../../../../avr32/lib/ucr3fp\libc.a(lib_a-locale.o)
                0x0000aacc                __nlocale_changed
 .bss.__mlocale_changed
                0x0000aad0        0x4 d:/programmes/atmel/studio/7.0/toolchain/avr32/avr32-gnu-toolchain/bin/../lib/gcc/avr32/4.4.7/../../../../avr32/lib/ucr3fp\libc.a(lib_a-locale.o)
                0x0000aad0                __mlocale_changed
 .bss._PathLocale
                0x0000aad4        0x4 d:/programmes/atmel/studio/7.0/toolchain/avr32/avr32-gnu-toolchain/bin/../lib/gcc/avr32/4.4.7/../../../../avr32/lib/ucr3fp\libc.a(lib_a-locale.o)
                0x0000aad4                _PathLocale
 .bss           0x0000aad8        0x0 d:/programmes/atmel/studio/7.0/toolchain/avr32/avr32-gnu-toolchain/bin/../lib/gcc/avr32/4.4.7/../../../../avr32/lib/ucr3fp\libc.a(lib_a-makebuf.o)
 .bss           0x0000aad8        0x0 d:/programmes/atmel/studio/7.0/toolchain/avr32/avr32-gnu-toolchain/bin/../lib/gcc/avr32/4.4.7/../../../../avr32/lib/ucr3fp\libc.a(lib_a-memchr.o)
 .bss           0x0000aad8        0x0 d:/programmes/atmel/studio/7.0/toolchain/avr32/avr32-gnu-toolchain/bin/../lib/gcc/avr32/4.4.7/../../../../avr32/lib/ucr3fp\libc.a(lib_a-memmove.o)
 .bss           0x0000aad8        0x0 d:/programmes/atmel/studio/7.0/toolchain/avr32/avr32-gnu-toolchain/bin/../lib/gcc/avr32/4.4.7/../../../../avr32/lib/ucr3fp\libc.a(lib_a-mprec.o)
 .bss           0x0000aad8        0x0 d:/programmes/atmel/studio/7.0/toolchain/avr32/avr32-gnu-toolchain/bin/../lib/gcc/avr32/4.4.7/../../../../avr32/lib/ucr3fp\libc.a(lib_a-reallocr.o)
 .bss           0x0000aad8        0x0 d:/programmes/atmel/studio/7.0/toolchain/avr32/avr32-gnu-toolchain/bin/../lib/gcc/avr32/4.4.7/../../../../avr32/lib/ucr3fp\libc.a(lib_a-reent.o)
 .bss           0x0000aad8        0x0 d:/programmes/atmel/studio/7.0/toolchain/avr32/avr32-gnu-toolchain/bin/../lib/gcc/avr32/4.4.7/../../../../avr32/lib/ucr3fp\libc.a(lib_a-s_isinfd.o)
 .bss           0x0000aad8        0x0 d:/programmes/atmel/studio/7.0/toolchain/avr32/avr32-gnu-toolchain/bin/../lib/gcc/avr32/4.4.7/../../../../avr32/lib/ucr3fp\libc.a(lib_a-stdio.o)
 .bss           0x0000aad8        0x0 d:/programmes/atmel/studio/7.0/toolchain/avr32/avr32-gnu-toolchain/bin/../lib/gcc/avr32/4.4.7/../../../../avr32/lib/ucr3fp\libc.a(lib_a-strcmp.o)
 .bss           0x0000aad8        0x0 d:/programmes/atmel/studio/7.0/toolchain/avr32/avr32-gnu-toolchain/bin/../lib/gcc/avr32/4.4.7/../../../../avr32/lib/ucr3fp\libc.a(lib_a-writer.o)
 .bss           0x0000aad8        0x0 d:/programmes/atmel/studio/7.0/toolchain/avr32/avr32-gnu-toolchain/bin/../lib/gcc/avr32/4.4.7/../../../../avr32/lib/ucr3fp\libc.a(lib_a-callocr.o)
 .bss           0x0000aad8        0x0 d:/programmes/atmel/studio/7.0/toolchain/avr32/avr32-gnu-toolchain/bin/../lib/gcc/avr32/4.4.7/../../../../avr32/lib/ucr3fp\libc.a(lib_a-closer.o)
 .bss           0x0000aad8        0x0 d:/programmes/atmel/studio/7.0/toolchain/avr32/avr32-gnu-toolchain/bin/../lib/gcc/avr32/4.4.7/../../../../avr32/lib/ucr3fp\libc.a(lib_a-fclose.o)
 .bss           0x0000aad8        0x0 d:/programmes/atmel/studio/7.0/toolchain/avr32/avr32-gnu-toolchain/bin/../lib/gcc/avr32/4.4.7/../../../../avr32/lib/ucr3fp\libc.a(lib_a-fstatr.o)
 .bss           0x0000aad8        0x0 d:/programmes/atmel/studio/7.0/toolchain/avr32/avr32-gnu-toolchain/bin/../lib/gcc/avr32/4.4.7/../../../../avr32/lib/ucr3fp\libc.a(lib_a-lseekr.o)
 .bss           0x0000aad8        0x0 d:/programmes/atmel/studio/7.0/toolchain/avr32/avr32-gnu-toolchain/bin/../lib/gcc/avr32/4.4.7/../../../../avr32/lib/ucr3fp\libc.a(lib_a-readr.o)
 *(COMMON)
 COMMON         0x0000aad8      0x134 Library/communication/console.o
                0x0000aad8                console_out_stream
                0x0000aaf0                console_in_buffer
                0x0000abf4                console_in_stream
 COMMON         0x0000ac0c        0x0 Library/communication/data_logging.o
 COMMON         0x0000ac0c        0x0 Library/communication/hud_telemetry.o
 COMMON         0x0000ac0c      0x20c Library/control/adaptive_parameter.o
                0x0000ac0c                adapt_param_set
 COMMON         0x0000ae18        0x1 Library/hal/fat_fs/diskio.o
                0x0000ae18                actual_status
 *fill*         0x0000ae19        0x3 
 COMMON         0x0000ae1c      0x340 Library/hal/gps_ublox.o
                0x0000ae1c                ubx_cfg_rate_message
                0x0000ae28                ubx_solution_message
                0x0000ae90                ubx_tim_vrfy_message
                0x0000aeb8                ubx_vel_ned_message
                0x0000af00                ubx_mon_rxr_message
                0x0000af04                ubx_nav_settings_message
                0x0000af4c                ubx_sv_info_message
                0x0000b0dc                ubx_pos_llh_message
                0x0000b114                ubx_tim_tp_message
                0x0000b134                ubx_cfg_set_get_rate_message
                0x0000b13c                ubx_status_message
 COMMON         0x0000b15c      0x124 Library/hal/i2c_driver_int.o
                0x0000b15c                current_transfer
                0x0000b160                current_slot
                0x0000b164                last_slot
                0x0000b168                transfer_queue
 COMMON         0x0000b280        0x1 Library/hal/pwm_servos.o
                0x0000b280                use_servos_7_8
 *fill*         0x0000b281        0x3 
 COMMON         0x0000b284      0x808 Library/hal/sd_spi.o
                0x0000b284                ram_buffer2
                0x0000b66c                end_of_transfer
                0x0000b670                sd_spi
                0x0000b69c                pdca_channeltx
                0x0000b6a0                pdca_channelrx
                0x0000b6a4                ram_buffer
 COMMON         0x0000ba8c       0x24 Library/hal/spektrum_satellite.o
                0x0000ba8c                spek_sat
                0x0000ba90                channel_center
 COMMON         0x0000bab0      0x134 Library/hal/xbee.o
                0x0000bab0                xbee_in_buffer
                0x0000bbb4                xbee_in_stream
                0x0000bbcc                xbee_out_stream
 COMMON         0x0000bbe4        0x0 src/mavlink_telemetry.o
 COMMON         0x0000bbe4       0x5a Library/hal/adc_int.o
                0x0000bbe4                adci_buffer
                0x0000bc24                continuous_mode
                0x0000bc25                even_odd
                0x0000bc26                adcifa_sequencer0_conversion_opt
 *fill*         0x0000bc3e        0x2 
 COMMON         0x0000bc40        0xc Library/hal/ads1274.o
                0x0000bc40                eic_options
                0x0000bc48                gcfg
 COMMON         0x0000bc4c       0x16 Library/hal/bmp085.o
                0x0000bc4c                b2
                0x0000bc4e                mb
                0x0000bc50                ac1
                0x0000bc52                b1
                0x0000bc54                ac6
                0x0000bc56                ac5
                0x0000bc58                ac2
                0x0000bc5a                md
                0x0000bc5c                ac4
                0x0000bc5e                mc
                0x0000bc60                ac3
 *fill*         0x0000bc62        0x2 
 COMMON         0x0000bc64        0x5 Library/util/print_util.o
                0x0000bc64                deb_stream
                0x0000bc68                blocking
 *fill*         0x0000bc69        0x3 
 COMMON         0x0000bc6c      0x118 src/asf/avr32/drivers/usbc/usbc_device.o
                0x0000bc6c                udd_ep_out_cache_buffer
                0x0000bd2c                udd_g_ctrlreq
                0x0000bd44                udd_ctrl_buffer
 COMMON         0x0000bd84        0x7 src/asf/common/services/sleepmgr/uc3/sleepmgr.o
                0x0000bd84                sleepmgr_locks
 *fill*         0x0000bd8b        0x1 
 COMMON         0x0000bd8c        0x4 src/asf/common/utils/stdio/read.o
                0x0000bd8c                ptr_get
 COMMON         0x0000bd90        0x8 src/asf/common/utils/stdio/write.o
                0x0000bd90                ptr_put
                0x0000bd94                stdio_base
 COMMON         0x0000bd98        0x4 d:/programmes/atmel/studio/7.0/toolchain/avr32/avr32-gnu-toolchain/bin/../lib/gcc/avr32/4.4.7/../../../../avr32/lib/ucr3fp\libc.a(lib_a-reent.o)
                0x0000bd98                errno
                0x0000bda0                . = ALIGN (0x8)
 *fill*         0x0000bd9c        0x4 
                0x0000bda0                . = ALIGN (0x8)
                0x0000bda0                _end = .
                0x0000bda0                PROVIDE (end, .)
                0x0000bda0                __heap_start__ = ALIGN (0x8)
                0x0000f000                . = ((ORIGIN (CPUSRAM) + 0xfffc) - _stack_size)
                0x0000f000                __heap_end__ = .

.stab
 *(.stab)

.stabstr
 *(.stabstr)

.stab.excl
 *(.stab.excl)

.stab.exclstr
 *(.stab.exclstr)

.stab.index
 *(.stab.index)

.stab.indexstr
 *(.stab.indexstr)

.comment        0x00000000       0x60
 *(.comment)
 .comment       0x00000000       0x30 Library/communication/console.o
                                 0x31 (size before relaxing)
 .comment       0x00000000       0x31 Library/communication/data_logging.o
 .comment       0x00000000       0x31 Library/communication/data_logging_telemetry.o
 .comment       0x00000000       0x31 Library/communication/hud_telemetry.o
 .comment       0x00000000       0x31 Library/communication/mavlink_communication.o
 .comment       0x00000000       0x31 Library/communication/mavlink_message_handler.o
 .comment       0x00000000       0x31 Library/communication/mavlink_waypoint_handler.o
 .comment       0x00000000       0x31 Library/communication/remote.o
 .comment       0x00000000       0x31 Library/communication/remote_telemetry.o
 .comment       0x00000000       0x31 Library/communication/state.o
 .comment       0x00000000       0x31 Library/communication/state_machine.o
 .comment       0x00000000       0x31 Library/communication/state_telemetry.o
 .comment       0x00000000       0x31 Library/control/adaptive_parameter.o
 .comment       0x00000000       0x31 Library/control/altitude_controller.o
 .comment       0x00000000       0x31 Library/control/attitude_controller.o
 .comment       0x00000000       0x31 Library/control/attitude_controller_p2.o
 .comment       0x00000000       0x31 Library/control/attitude_error_estimator.o
 .comment       0x00000000       0x31 Library/control/joystick_parsing.o
 .comment       0x00000000       0x31 Library/control/joystick_parsing_telemetry.o
 .comment       0x00000000       0x31 Library/control/pid_controller.o
 .comment       0x00000000       0x31 Library/control/servos_mix_quadcopter_cross.o
 .comment       0x00000000       0x31 Library/control/servos_mix_quadcopter_diag.o
 .comment       0x00000000       0x31 Library/control/stabilisation_copter.o
 .comment       0x00000000       0x31 Library/control/stabilisation_telemetry.o
 .comment       0x00000000       0x31 Library/control/vector_field_waypoint.o
 .comment       0x00000000       0x31 Library/control/velocity_controller_copter.o
 .comment       0x00000000       0x31 Library/hal/analog_monitor_telemetry.o
 .comment       0x00000000       0x31 Library/hal/analog_monitor.o
 .comment       0x00000000       0x31 Library/hal/bmp085_telemetry.o
 .comment       0x00000000       0x31 Library/hal/fat_fs/diskio.o
 .comment       0x00000000       0x31 Library/hal/fat_fs/ff.o
 .comment       0x00000030       0x30 Library/hal/fat_fs/option/ccsbcs.o
                                 0x31 (size before relaxing)
 .comment       0x00000000       0x31 Library/hal/fat_fs/option/syscall.o
 .comment       0x00000000       0x31 Library/hal/fat_fs/option/unicode.o
 .comment       0x00000000       0x31 Library/hal/gps_ublox.o
 .comment       0x00000000       0x31 Library/hal/gps_ublox_telemetry.o
 .comment       0x00000000       0x31 Library/hal/hmc5883l.o
 .comment       0x00000000       0x31 Library/hal/i2c_driver_int.o
 .comment       0x00000000       0x31 Library/hal/lsm330dlc.o
 .comment       0x00000000       0x31 Library/hal/piezo_speaker.o
 .comment       0x00000000       0x31 Library/hal/pwm_servos.o
 .comment       0x00000000       0x31 Library/hal/sd_spi.o
 .comment       0x00000000       0x31 Library/hal/servos.o
 .comment       0x00000000       0x31 Library/hal/servos_telemetry.o
 .comment       0x00000000       0x31 Library/hal/sonar_i2cxl.o
 .comment       0x00000000       0x31 Library/hal/sonar_telemetry.o
 .comment       0x00000000       0x31 Library/hal/spektrum_satellite.o
 .comment       0x00000000       0x31 Library/hal/time_keeper.o
 .comment       0x00000000       0x31 Library/hal/usb_int.o
 .comment       0x00000000       0x31 Library/hal/xbee.o
 .comment       0x00000000       0x31 Library/runtime/scheduler_telemetry.o
 .comment       0x00000000       0x31 Library/sensing/ahrs.o
 .comment       0x00000000       0x31 Library/sensing/ahrs_telemetry.o
 .comment       0x00000000       0x31 Library/sensing/altitude_estimation.o
 .comment       0x00000000       0x31 Library/sensing/imu_telemetry.o
 .comment       0x00000000       0x31 Library/sensing/position_estimation.o
 .comment       0x00000000       0x31 Library/sensing/position_estimation_telemetry.o
 .comment       0x00000000       0x31 Library/sensing/qfilter.o
 .comment       0x00000000       0x31 Library/sensing/simulation_telemetry.o
 .comment       0x00000000       0x31 Library/util/linear_algebra.o
 .comment       0x00000000       0x31 Library/util/matrixlib_float.o
 .comment       0x00000000       0x31 Library/util/quick_trig.o
 .comment       0x00000000       0x31 src/central_data.o
 .comment       0x00000000       0x31 src/mavlink_telemetry.o
 .comment       0x00000000       0x31 src/tasks.o
 .comment       0x00000000       0x31 Library/communication/mavlink_stream.o
 .comment       0x00000000       0x31 Library/communication/onboard_parameters.o
 .comment       0x00000000       0x31 Library/control/navigation.o
 .comment       0x00000000       0x31 Library/control/stabilisation.o
 .comment       0x00000000       0x31 Library/hal/adc_int.o
 .comment       0x00000000       0x31 Library/hal/ads1274.o
 .comment       0x00000000       0x31 Library/hal/bmp085.o
 .comment       0x00000000       0x31 Library/hal/dac_dma.o
 .comment       0x00000000       0x31 Library/hal/led.o
 .comment       0x00000000       0x31 Library/hal/spi_buffered.o
 .comment       0x00000000       0x31 Library/hal/uart_int.o
 .comment       0x00000000       0x31 Library/runtime/scheduler.o
 .comment       0x00000000       0x31 Library/sensing/imu.o
 .comment       0x00000000       0x31 Library/sensing/simulation.o
 .comment       0x00000000       0x31 Library/util/buffer.o
 .comment       0x00000000       0x31 Library/util/coord_conventions.o
 .comment       0x00000000       0x31 Library/util/generator.o
 .comment       0x00000000       0x31 Library/util/print_util.o
 .comment       0x00000000       0x31 Library/util/sinus.o
 .comment       0x00000000       0x31 src/asf/avr32/drivers/adcifa/adcifa.o
 .comment       0x00000000       0x31 src/asf/avr32/drivers/ast/ast.o
 .comment       0x00000000       0x31 src/asf/avr32/drivers/dacifb/dacifb.o
 .comment       0x00000000       0x31 src/asf/avr32/drivers/eic/eic.o
 .comment       0x00000000       0x31 src/asf/avr32/drivers/flashc/flashc.o
 .comment       0x00000000       0x31 src/asf/avr32/drivers/gpio/gpio.o
 .comment       0x00000000       0x31 src/asf/avr32/drivers/intc/intc.o
 .comment       0x00000000       0x31 src/asf/avr32/drivers/pdca/pdca.o
 .comment       0x00000000       0x31 src/asf/avr32/drivers/pevc/pevc.o
 .comment       0x00000000       0x31 src/asf/avr32/drivers/pm/pm_uc3c.o
 .comment       0x00000000       0x31 src/asf/avr32/drivers/pm/power_clocks_lib.o
 .comment       0x00000000       0x31 src/asf/avr32/drivers/pwm/pwm4.o
 .comment       0x00000000       0x31 src/asf/avr32/drivers/scif/scif_uc3c.o
 .comment       0x00000000       0x31 src/asf/avr32/drivers/spi/spi.o
 .comment       0x00000000       0x31 src/asf/avr32/drivers/tc/tc.o
 .comment       0x00000000       0x31 src/asf/avr32/drivers/twim/twim.o
 .comment       0x00000000       0x31 src/asf/avr32/drivers/usart/usart.o
 .comment       0x00000000       0x31 src/asf/avr32/drivers/usbc/usbc_device.o
 .comment       0x00000000       0x31 src/asf/avr32/services/delay/delay.o
 .comment       0x00000000       0x31 src/asf/common/boards/user_board/init.o
 .comment       0x00000000       0x31 src/asf/common/services/clock/uc3c/osc.o
 .comment       0x00000000       0x31 src/asf/common/services/clock/uc3c/pll.o
 .comment       0x00000000       0x31 src/asf/common/services/clock/uc3c/sysclk.o
 .comment       0x00000000       0x31 src/asf/common/services/sleepmgr/uc3/sleepmgr.o
 .comment       0x00000000       0x31 src/asf/common/services/spi/uc3_spi/spi_master.o
 .comment       0x00000000       0x31 src/asf/common/services/usb/class/cdc/device/udi_cdc.o
 .comment       0x00000000       0x31 src/asf/common/services/usb/class/cdc/device/udi_cdc_desc.o
 .comment       0x00000000       0x31 src/asf/common/services/usb/udc/udc.o
 .comment       0x00000000       0x31 src/asf/common/utils/stdio/read.o
 .comment       0x00000000       0x31 src/asf/common/utils/stdio/stdio_usb/stdio_usb.o
 .comment       0x00000000       0x31 src/asf/common/utils/stdio/write.o
 .comment       0x00000000       0x31 src/boardsupport.o
 .comment       0x00000000       0x31 src/main.o
 .comment       0x00000000       0x31 d:/programmes/atmel/studio/7.0/toolchain/avr32/avr32-gnu-toolchain/bin/../lib/gcc/avr32/4.4.7/../../../../avr32/lib/ucr3fp\libm.a(lib_a-s_cos.o)
 .comment       0x00000000       0x31 d:/programmes/atmel/studio/7.0/toolchain/avr32/avr32-gnu-toolchain/bin/../lib/gcc/avr32/4.4.7/../../../../avr32/lib/ucr3fp\libm.a(lib_a-s_floor.o)
 .comment       0x00000000       0x31 d:/programmes/atmel/studio/7.0/toolchain/avr32/avr32-gnu-toolchain/bin/../lib/gcc/avr32/4.4.7/../../../../avr32/lib/ucr3fp\libm.a(lib_a-s_sin.o)
 .comment       0x00000000       0x31 d:/programmes/atmel/studio/7.0/toolchain/avr32/avr32-gnu-toolchain/bin/../lib/gcc/avr32/4.4.7/../../../../avr32/lib/ucr3fp\libm.a(lib_a-w_asin.o)
 .comment       0x00000000       0x31 d:/programmes/atmel/studio/7.0/toolchain/avr32/avr32-gnu-toolchain/bin/../lib/gcc/avr32/4.4.7/../../../../avr32/lib/ucr3fp\libm.a(lib_a-w_atan2.o)
 .comment       0x00000000       0x31 d:/programmes/atmel/studio/7.0/toolchain/avr32/avr32-gnu-toolchain/bin/../lib/gcc/avr32/4.4.7/../../../../avr32/lib/ucr3fp\libm.a(lib_a-w_fmod.o)
 .comment       0x00000000       0x31 d:/programmes/atmel/studio/7.0/toolchain/avr32/avr32-gnu-toolchain/bin/../lib/gcc/avr32/4.4.7/../../../../avr32/lib/ucr3fp\libm.a(lib_a-w_pow.o)
 .comment       0x00000000       0x31 d:/programmes/atmel/studio/7.0/toolchain/avr32/avr32-gnu-toolchain/bin/../lib/gcc/avr32/4.4.7/../../../../avr32/lib/ucr3fp\libm.a(lib_a-w_sqrt.o)
 .comment       0x00000000       0x31 d:/programmes/atmel/studio/7.0/toolchain/avr32/avr32-gnu-toolchain/bin/../lib/gcc/avr32/4.4.7/../../../../avr32/lib/ucr3fp\libm.a(lib_a-wf_sqrt.o)
 .comment       0x00000000       0x31 d:/programmes/atmel/studio/7.0/toolchain/avr32/avr32-gnu-toolchain/bin/../lib/gcc/avr32/4.4.7/../../../../avr32/lib/ucr3fp\libm.a(lib_a-e_asin.o)
 .comment       0x00000000       0x31 d:/programmes/atmel/studio/7.0/toolchain/avr32/avr32-gnu-toolchain/bin/../lib/gcc/avr32/4.4.7/../../../../avr32/lib/ucr3fp\libm.a(lib_a-e_atan2.o)
 .comment       0x00000000       0x31 d:/programmes/atmel/studio/7.0/toolchain/avr32/avr32-gnu-toolchain/bin/../lib/gcc/avr32/4.4.7/../../../../avr32/lib/ucr3fp\libm.a(lib_a-e_fmod.o)
 .comment       0x00000000       0x31 d:/programmes/atmel/studio/7.0/toolchain/avr32/avr32-gnu-toolchain/bin/../lib/gcc/avr32/4.4.7/../../../../avr32/lib/ucr3fp\libm.a(lib_a-e_pow.o)
 .comment       0x00000000       0x31 d:/programmes/atmel/studio/7.0/toolchain/avr32/avr32-gnu-toolchain/bin/../lib/gcc/avr32/4.4.7/../../../../avr32/lib/ucr3fp\libm.a(lib_a-e_rem_pio2.o)
 .comment       0x00000000       0x31 d:/programmes/atmel/studio/7.0/toolchain/avr32/avr32-gnu-toolchain/bin/../lib/gcc/avr32/4.4.7/../../../../avr32/lib/ucr3fp\libm.a(lib_a-e_sqrt.o)
 .comment       0x00000000       0x31 d:/programmes/atmel/studio/7.0/toolchain/avr32/avr32-gnu-toolchain/bin/../lib/gcc/avr32/4.4.7/../../../../avr32/lib/ucr3fp\libm.a(lib_a-ef_sqrt.o)
 .comment       0x00000000       0x31 d:/programmes/atmel/studio/7.0/toolchain/avr32/avr32-gnu-toolchain/bin/../lib/gcc/avr32/4.4.7/../../../../avr32/lib/ucr3fp\libm.a(lib_a-k_cos.o)
 .comment       0x00000000       0x31 d:/programmes/atmel/studio/7.0/toolchain/avr32/avr32-gnu-toolchain/bin/../lib/gcc/avr32/4.4.7/../../../../avr32/lib/ucr3fp\libm.a(lib_a-k_rem_pio2.o)
 .comment       0x00000000       0x31 d:/programmes/atmel/studio/7.0/toolchain/avr32/avr32-gnu-toolchain/bin/../lib/gcc/avr32/4.4.7/../../../../avr32/lib/ucr3fp\libm.a(lib_a-k_sin.o)
 .comment       0x00000000       0x31 d:/programmes/atmel/studio/7.0/toolchain/avr32/avr32-gnu-toolchain/bin/../lib/gcc/avr32/4.4.7/../../../../avr32/lib/ucr3fp\libm.a(lib_a-s_atan.o)
 .comment       0x00000000       0x31 d:/programmes/atmel/studio/7.0/toolchain/avr32/avr32-gnu-toolchain/bin/../lib/gcc/avr32/4.4.7/../../../../avr32/lib/ucr3fp\libm.a(lib_a-s_fabs.o)
 .comment       0x00000000       0x31 d:/programmes/atmel/studio/7.0/toolchain/avr32/avr32-gnu-toolchain/bin/../lib/gcc/avr32/4.4.7/../../../../avr32/lib/ucr3fp\libm.a(lib_a-s_finite.o)
 .comment       0x00000000       0x31 d:/programmes/atmel/studio/7.0/toolchain/avr32/avr32-gnu-toolchain/bin/../lib/gcc/avr32/4.4.7/../../../../avr32/lib/ucr3fp\libm.a(lib_a-s_isnand.o)
 .comment       0x00000000       0x31 d:/programmes/atmel/studio/7.0/toolchain/avr32/avr32-gnu-toolchain/bin/../lib/gcc/avr32/4.4.7/../../../../avr32/lib/ucr3fp\libm.a(lib_a-s_lib_ver.o)
 .comment       0x00000000       0x31 d:/programmes/atmel/studio/7.0/toolchain/avr32/avr32-gnu-toolchain/bin/../lib/gcc/avr32/4.4.7/../../../../avr32/lib/ucr3fp\libm.a(lib_a-s_matherr.o)
 .comment       0x00000000       0x31 d:/programmes/atmel/studio/7.0/toolchain/avr32/avr32-gnu-toolchain/bin/../lib/gcc/avr32/4.4.7/../../../../avr32/lib/ucr3fp\libm.a(lib_a-s_nan.o)
 .comment       0x00000000       0x31 d:/programmes/atmel/studio/7.0/toolchain/avr32/avr32-gnu-toolchain/bin/../lib/gcc/avr32/4.4.7/../../../../avr32/lib/ucr3fp\libm.a(lib_a-s_rint.o)
 .comment       0x00000000       0x31 d:/programmes/atmel/studio/7.0/toolchain/avr32/avr32-gnu-toolchain/bin/../lib/gcc/avr32/4.4.7/../../../../avr32/lib/ucr3fp\libm.a(lib_a-s_scalbn.o)
 .comment       0x00000000       0x31 d:/programmes/atmel/studio/7.0/toolchain/avr32/avr32-gnu-toolchain/bin/../lib/gcc/avr32/4.4.7/../../../../avr32/lib/ucr3fp\libm.a(lib_a-sf_isnan.o)
 .comment       0x00000000       0x31 d:/programmes/atmel/studio/7.0/toolchain/avr32/avr32-gnu-toolchain/bin/../lib/gcc/avr32/4.4.7/../../../../avr32/lib/ucr3fp\libm.a(lib_a-s_copysign.o)
 .comment       0x00000000       0x31 d:/programmes/atmel/studio/7.0/toolchain/avr32/avr32-gnu-toolchain/bin/../lib/gcc/avr32/4.4.7/ucr3fp\libgcc.a(_floatdidf.o)
 .comment       0x00000000       0x31 d:/programmes/atmel/studio/7.0/toolchain/avr32/avr32-gnu-toolchain/bin/../lib/gcc/avr32/4.4.7/ucr3fp\libgcc.a(_divdi3.o)
 .comment       0x00000000       0x31 d:/programmes/atmel/studio/7.0/toolchain/avr32/avr32-gnu-toolchain/bin/../lib/gcc/avr32/4.4.7/ucr3fp\libgcc.a(_moddi3.o)
 .comment       0x00000000       0x31 d:/programmes/atmel/studio/7.0/toolchain/avr32/avr32-gnu-toolchain/bin/../lib/gcc/avr32/4.4.7/ucr3fp\libgcc.a(_udivdi3.o)
 .comment       0x00000000       0x31 d:/programmes/atmel/studio/7.0/toolchain/avr32/avr32-gnu-toolchain/bin/../lib/gcc/avr32/4.4.7/ucr3fp\libgcc.a(_umoddi3.o)
 .comment       0x00000000       0x31 d:/programmes/atmel/studio/7.0/toolchain/avr32/avr32-gnu-toolchain/bin/../lib/gcc/avr32/4.4.7/../../../../avr32/lib/ucr3fp\libc.a(lib_a-errno.o)
 .comment       0x00000000       0x31 d:/programmes/atmel/studio/7.0/toolchain/avr32/avr32-gnu-toolchain/bin/../lib/gcc/avr32/4.4.7/../../../../avr32/lib/ucr3fp\libc.a(lib_a-impure.o)
 .comment       0x00000000       0x31 d:/programmes/atmel/studio/7.0/toolchain/avr32/avr32-gnu-toolchain/bin/../lib/gcc/avr32/4.4.7/../../../../avr32/lib/ucr3fp\libc.a(lib_a-malloc.o)
 .comment       0x00000000       0x31 d:/programmes/atmel/studio/7.0/toolchain/avr32/avr32-gnu-toolchain/bin/../lib/gcc/avr32/4.4.7/../../../../avr32/lib/ucr3fp\libc.a(lib_a-mallocr.o)
 .comment       0x00000000       0x31 d:/programmes/atmel/studio/7.0/toolchain/avr32/avr32-gnu-toolchain/bin/../lib/gcc/avr32/4.4.7/../../../../avr32/lib/ucr3fp\libc.a(lib_a-memset.o)
 .comment       0x00000000       0x31 d:/programmes/atmel/studio/7.0/toolchain/avr32/avr32-gnu-toolchain/bin/../lib/gcc/avr32/4.4.7/../../../../avr32/lib/ucr3fp\libc.a(lib_a-mlock.o)
 .comment       0x00000000       0x31 d:/programmes/atmel/studio/7.0/toolchain/avr32/avr32-gnu-toolchain/bin/../lib/gcc/avr32/4.4.7/../../../../avr32/lib/ucr3fp\libc.a(lib_a-rand.o)
 .comment       0x00000000       0x31 d:/programmes/atmel/studio/7.0/toolchain/avr32/avr32-gnu-toolchain/bin/../lib/gcc/avr32/4.4.7/../../../../avr32/lib/ucr3fp\libc.a(lib_a-sbrkr.o)
 .comment       0x00000000       0x31 d:/programmes/atmel/studio/7.0/toolchain/avr32/avr32-gnu-toolchain/bin/../lib/gcc/avr32/4.4.7/../../../../avr32/lib/ucr3fp\libc.a(lib_a-snprintf.o)
 .comment       0x00000000       0x31 d:/programmes/atmel/studio/7.0/toolchain/avr32/avr32-gnu-toolchain/bin/../lib/gcc/avr32/4.4.7/../../../../avr32/lib/ucr3fp\libc.a(lib_a-strcpy.o)
 .comment       0x00000000       0x31 d:/programmes/atmel/studio/7.0/toolchain/avr32/avr32-gnu-toolchain/bin/../lib/gcc/avr32/4.4.7/../../../../avr32/lib/ucr3fp\libc.a(lib_a-strlen.o)
 .comment       0x00000000       0x31 d:/programmes/atmel/studio/7.0/toolchain/avr32/avr32-gnu-toolchain/bin/../lib/gcc/avr32/4.4.7/../../../../avr32/lib/ucr3fp\libc.a(lib_a-syscalls.o)
 .comment       0x00000000       0x31 d:/programmes/atmel/studio/7.0/toolchain/avr32/avr32-gnu-toolchain/bin/../lib/gcc/avr32/4.4.7/../../../../avr32/lib/ucr3fp\libc.a(lib_a-vfprintf.o)
 .comment       0x00000000       0x31 d:/programmes/atmel/studio/7.0/toolchain/avr32/avr32-gnu-toolchain/bin/../lib/gcc/avr32/4.4.7/../../../../avr32/lib/ucr3fp\libc.a(lib_a-wsetup.o)
 .comment       0x00000000       0x31 d:/programmes/atmel/studio/7.0/toolchain/avr32/avr32-gnu-toolchain/bin/../lib/gcc/avr32/4.4.7/../../../../avr32/lib/ucr3fp\libc.a(lib_a-dtoa.o)
 .comment       0x00000000       0x31 d:/programmes/atmel/studio/7.0/toolchain/avr32/avr32-gnu-toolchain/bin/../lib/gcc/avr32/4.4.7/../../../../avr32/lib/ucr3fp\libc.a(lib_a-fflush.o)
 .comment       0x00000000       0x31 d:/programmes/atmel/studio/7.0/toolchain/avr32/avr32-gnu-toolchain/bin/../lib/gcc/avr32/4.4.7/../../../../avr32/lib/ucr3fp\libc.a(lib_a-findfp.o)
 .comment       0x00000000       0x31 d:/programmes/atmel/studio/7.0/toolchain/avr32/avr32-gnu-toolchain/bin/../lib/gcc/avr32/4.4.7/../../../../avr32/lib/ucr3fp\libc.a(lib_a-freer.o)
 .comment       0x00000000       0x31 d:/programmes/atmel/studio/7.0/toolchain/avr32/avr32-gnu-toolchain/bin/../lib/gcc/avr32/4.4.7/../../../../avr32/lib/ucr3fp\libc.a(lib_a-fvwrite.o)
 .comment       0x00000000       0x31 d:/programmes/atmel/studio/7.0/toolchain/avr32/avr32-gnu-toolchain/bin/../lib/gcc/avr32/4.4.7/../../../../avr32/lib/ucr3fp\libc.a(lib_a-fwalk.o)
 .comment       0x00000000       0x31 d:/programmes/atmel/studio/7.0/toolchain/avr32/avr32-gnu-toolchain/bin/../lib/gcc/avr32/4.4.7/../../../../avr32/lib/ucr3fp\libc.a(lib_a-locale.o)
 .comment       0x00000000       0x31 d:/programmes/atmel/studio/7.0/toolchain/avr32/avr32-gnu-toolchain/bin/../lib/gcc/avr32/4.4.7/../../../../avr32/lib/ucr3fp\libc.a(lib_a-makebuf.o)
 .comment       0x00000000       0x31 d:/programmes/atmel/studio/7.0/toolchain/avr32/avr32-gnu-toolchain/bin/../lib/gcc/avr32/4.4.7/../../../../avr32/lib/ucr3fp\libc.a(lib_a-memchr.o)
 .comment       0x00000000       0x31 d:/programmes/atmel/studio/7.0/toolchain/avr32/avr32-gnu-toolchain/bin/../lib/gcc/avr32/4.4.7/../../../../avr32/lib/ucr3fp\libc.a(lib_a-memmove.o)
 .comment       0x00000000       0x31 d:/programmes/atmel/studio/7.0/toolchain/avr32/avr32-gnu-toolchain/bin/../lib/gcc/avr32/4.4.7/../../../../avr32/lib/ucr3fp\libc.a(lib_a-mprec.o)
 .comment       0x00000000       0x31 d:/programmes/atmel/studio/7.0/toolchain/avr32/avr32-gnu-toolchain/bin/../lib/gcc/avr32/4.4.7/../../../../avr32/lib/ucr3fp\libc.a(lib_a-reallocr.o)
 .comment       0x00000000       0x31 d:/programmes/atmel/studio/7.0/toolchain/avr32/avr32-gnu-toolchain/bin/../lib/gcc/avr32/4.4.7/../../../../avr32/lib/ucr3fp\libc.a(lib_a-reent.o)
 .comment       0x00000000       0x31 d:/programmes/atmel/studio/7.0/toolchain/avr32/avr32-gnu-toolchain/bin/../lib/gcc/avr32/4.4.7/../../../../avr32/lib/ucr3fp\libc.a(lib_a-s_isinfd.o)
 .comment       0x00000000       0x31 d:/programmes/atmel/studio/7.0/toolchain/avr32/avr32-gnu-toolchain/bin/../lib/gcc/avr32/4.4.7/../../../../avr32/lib/ucr3fp\libc.a(lib_a-stdio.o)
 .comment       0x00000000       0x31 d:/programmes/atmel/studio/7.0/toolchain/avr32/avr32-gnu-toolchain/bin/../lib/gcc/avr32/4.4.7/../../../../avr32/lib/ucr3fp\libc.a(lib_a-writer.o)
 .comment       0x00000000       0x31 d:/programmes/atmel/studio/7.0/toolchain/avr32/avr32-gnu-toolchain/bin/../lib/gcc/avr32/4.4.7/../../../../avr32/lib/ucr3fp\libc.a(lib_a-callocr.o)
 .comment       0x00000000       0x31 d:/programmes/atmel/studio/7.0/toolchain/avr32/avr32-gnu-toolchain/bin/../lib/gcc/avr32/4.4.7/../../../../avr32/lib/ucr3fp\libc.a(lib_a-closer.o)
 .comment       0x00000000       0x31 d:/programmes/atmel/studio/7.0/toolchain/avr32/avr32-gnu-toolchain/bin/../lib/gcc/avr32/4.4.7/../../../../avr32/lib/ucr3fp\libc.a(lib_a-fclose.o)
 .comment       0x00000000       0x31 d:/programmes/atmel/studio/7.0/toolchain/avr32/avr32-gnu-toolchain/bin/../lib/gcc/avr32/4.4.7/../../../../avr32/lib/ucr3fp\libc.a(lib_a-fstatr.o)
 .comment       0x00000000       0x31 d:/programmes/atmel/studio/7.0/toolchain/avr32/avr32-gnu-toolchain/bin/../lib/gcc/avr32/4.4.7/../../../../avr32/lib/ucr3fp\libc.a(lib_a-lseekr.o)
 .comment       0x00000000       0x31 d:/programmes/atmel/studio/7.0/toolchain/avr32/avr32-gnu-toolchain/bin/../lib/gcc/avr32/4.4.7/../../../../avr32/lib/ucr3fp\libc.a(lib_a-readr.o)

.debug
 *(.debug)

.line
 *(.line)

.debug_srcinfo
 *(.debug_srcinfo)

.debug_sfnames
 *(.debug_sfnames)

.debug_aranges  0x00000000     0x1930
 *(.debug_aranges)
 .debug_aranges
                0x00000000       0x20 Library/communication/console.o
 .debug_aranges
                0x00000020       0x20 Library/communication/data_logging.o
 .debug_aranges
                0x00000040       0x20 Library/communication/data_logging_telemetry.o
 .debug_aranges
                0x00000060       0x20 Library/communication/hud_telemetry.o
 .debug_aranges
                0x00000080       0x20 Library/communication/mavlink_communication.o
 .debug_aranges
                0x000000a0       0x20 Library/communication/mavlink_message_handler.o
 .debug_aranges
                0x000000c0       0x20 Library/communication/mavlink_waypoint_handler.o
 .debug_aranges
                0x000000e0       0x20 Library/communication/remote.o
 .debug_aranges
                0x00000100       0x20 Library/communication/remote_telemetry.o
 .debug_aranges
                0x00000120       0x20 Library/communication/state.o
 .debug_aranges
                0x00000140       0x20 Library/communication/state_machine.o
 .debug_aranges
                0x00000160       0x20 Library/communication/state_telemetry.o
 .debug_aranges
                0x00000180       0x20 Library/control/adaptive_parameter.o
 .debug_aranges
                0x000001a0       0x20 Library/control/altitude_controller.o
 .debug_aranges
                0x000001c0       0x20 Library/control/attitude_controller.o
 .debug_aranges
                0x000001e0       0x20 Library/control/attitude_controller_p2.o
 .debug_aranges
                0x00000200       0x20 Library/control/attitude_error_estimator.o
 .debug_aranges
                0x00000220       0x20 Library/control/joystick_parsing.o
 .debug_aranges
                0x00000240       0x20 Library/control/joystick_parsing_telemetry.o
 .debug_aranges
                0x00000260       0x20 Library/control/pid_controller.o
 .debug_aranges
                0x00000280       0x20 Library/control/servos_mix_quadcopter_cross.o
 .debug_aranges
                0x000002a0       0x20 Library/control/servos_mix_quadcopter_diag.o
 .debug_aranges
                0x000002c0       0x20 Library/control/stabilisation_copter.o
 .debug_aranges
                0x000002e0       0x20 Library/control/stabilisation_telemetry.o
 .debug_aranges
                0x00000300       0x20 Library/control/vector_field_waypoint.o
 .debug_aranges
                0x00000320       0x20 Library/control/velocity_controller_copter.o
 .debug_aranges
                0x00000340       0x20 Library/hal/analog_monitor_telemetry.o
 .debug_aranges
                0x00000360       0x20 Library/hal/analog_monitor.o
 .debug_aranges
                0x00000380       0x20 Library/hal/bmp085_telemetry.o
 .debug_aranges
                0x000003a0       0x20 Library/hal/fat_fs/diskio.o
 .debug_aranges
                0x000003c0       0x20 Library/hal/fat_fs/ff.o
 .debug_aranges
                0x000003e0       0x20 Library/hal/fat_fs/option/ccsbcs.o
 .debug_aranges
                0x00000400       0x20 Library/hal/fat_fs/option/syscall.o
 .debug_aranges
                0x00000420       0x20 Library/hal/gps_ublox.o
 .debug_aranges
                0x00000440       0x20 Library/hal/gps_ublox_telemetry.o
 .debug_aranges
                0x00000460       0x20 Library/hal/hmc5883l.o
 .debug_aranges
                0x00000480       0x20 Library/hal/i2c_driver_int.o
 .debug_aranges
                0x000004a0       0x20 Library/hal/lsm330dlc.o
 .debug_aranges
                0x000004c0       0x20 Library/hal/piezo_speaker.o
 .debug_aranges
                0x000004e0       0x20 Library/hal/pwm_servos.o
 .debug_aranges
                0x00000500       0x20 Library/hal/sd_spi.o
 .debug_aranges
                0x00000520       0x20 Library/hal/servos.o
 .debug_aranges
                0x00000540       0x20 Library/hal/servos_telemetry.o
 .debug_aranges
                0x00000560       0x20 Library/hal/sonar_i2cxl.o
 .debug_aranges
                0x00000580       0x20 Library/hal/sonar_telemetry.o
 .debug_aranges
                0x000005a0       0x20 Library/hal/spektrum_satellite.o
 .debug_aranges
                0x000005c0       0x20 Library/hal/time_keeper.o
 .debug_aranges
                0x000005e0       0x20 Library/hal/usb_int.o
 .debug_aranges
                0x00000600       0x20 Library/hal/xbee.o
 .debug_aranges
                0x00000620       0x20 Library/runtime/scheduler_telemetry.o
 .debug_aranges
                0x00000640       0x20 Library/sensing/ahrs.o
 .debug_aranges
                0x00000660       0x20 Library/sensing/ahrs_telemetry.o
 .debug_aranges
                0x00000680       0x20 Library/sensing/altitude_estimation.o
 .debug_aranges
                0x000006a0       0x20 Library/sensing/imu_telemetry.o
 .debug_aranges
                0x000006c0       0x20 Library/sensing/position_estimation.o
 .debug_aranges
                0x000006e0       0x20 Library/sensing/position_estimation_telemetry.o
 .debug_aranges
                0x00000700       0x20 Library/sensing/qfilter.o
 .debug_aranges
                0x00000720       0x20 Library/sensing/simulation_telemetry.o
 .debug_aranges
                0x00000740       0x20 Library/util/linear_algebra.o
 .debug_aranges
                0x00000760       0x20 Library/util/matrixlib_float.o
 .debug_aranges
                0x00000780       0x20 Library/util/quick_trig.o
 .debug_aranges
                0x000007a0       0x20 src/central_data.o
 .debug_aranges
                0x000007c0       0x20 src/mavlink_telemetry.o
 .debug_aranges
                0x000007e0       0x20 src/tasks.o
 .debug_aranges
                0x00000800       0x20 Library/communication/mavlink_stream.o
 .debug_aranges
                0x00000820       0x20 Library/communication/onboard_parameters.o
 .debug_aranges
                0x00000840       0x20 Library/control/navigation.o
 .debug_aranges
                0x00000860       0x20 Library/control/stabilisation.o
 .debug_aranges
                0x00000880       0x20 Library/hal/adc_int.o
 .debug_aranges
                0x000008a0       0x20 Library/hal/ads1274.o
 .debug_aranges
                0x000008c0       0x20 Library/hal/bmp085.o
 .debug_aranges
                0x000008e0       0x20 Library/hal/dac_dma.o
 .debug_aranges
                0x00000900       0x20 Library/hal/led.o
 .debug_aranges
                0x00000920       0x20 Library/hal/spi_buffered.o
 .debug_aranges
                0x00000940       0x20 Library/hal/uart_int.o
 .debug_aranges
                0x00000960       0x20 Library/runtime/scheduler.o
 .debug_aranges
                0x00000980       0x20 Library/sensing/imu.o
 .debug_aranges
                0x000009a0       0x20 Library/sensing/simulation.o
 .debug_aranges
                0x000009c0       0x20 Library/util/buffer.o
 .debug_aranges
                0x000009e0       0x20 Library/util/coord_conventions.o
 .debug_aranges
                0x00000a00       0x20 Library/util/generator.o
 .debug_aranges
                0x00000a20       0x20 Library/util/print_util.o
 .debug_aranges
                0x00000a40       0x20 src/asf/avr32/drivers/adcifa/adcifa.o
 .debug_aranges
                0x00000a60       0x20 src/asf/avr32/drivers/ast/ast.o
 .debug_aranges
                0x00000a80       0x20 src/asf/avr32/drivers/dacifb/dacifb.o
 .debug_aranges
                0x00000aa0       0x20 src/asf/avr32/drivers/eic/eic.o
 .debug_aranges
                0x00000ac0       0x20 src/asf/avr32/drivers/flashc/flashc.o
 .debug_aranges
                0x00000ae0       0x20 src/asf/avr32/drivers/gpio/gpio.o
 .debug_aranges
                0x00000b00       0x20 src/asf/avr32/drivers/intc/intc.o
 .debug_aranges
                0x00000b20       0x20 src/asf/avr32/drivers/pdca/pdca.o
 .debug_aranges
                0x00000b40       0x20 src/asf/avr32/drivers/pevc/pevc.o
 .debug_aranges
                0x00000b60       0x20 src/asf/avr32/drivers/pm/pm_uc3c.o
 .debug_aranges
                0x00000b80       0x20 src/asf/avr32/drivers/pm/power_clocks_lib.o
 .debug_aranges
                0x00000ba0       0x20 src/asf/avr32/drivers/pwm/pwm4.o
 .debug_aranges
                0x00000bc0       0x20 src/asf/avr32/drivers/scif/scif_uc3c.o
 .debug_aranges
                0x00000be0       0x20 src/asf/avr32/drivers/spi/spi.o
 .debug_aranges
                0x00000c00       0x20 src/asf/avr32/drivers/tc/tc.o
 .debug_aranges
                0x00000c20       0x20 src/asf/avr32/drivers/twim/twim.o
 .debug_aranges
                0x00000c40       0x20 src/asf/avr32/drivers/usart/usart.o
 .debug_aranges
                0x00000c60       0x20 src/asf/avr32/drivers/usbc/usbc_device.o
 .debug_aranges
                0x00000c80       0x20 src/asf/avr32/services/delay/delay.o
 .debug_aranges
                0x00000ca0       0x20 src/asf/common/boards/user_board/init.o
 .debug_aranges
                0x00000cc0       0x20 src/asf/common/services/clock/uc3c/osc.o
 .debug_aranges
                0x00000ce0       0x20 src/asf/common/services/clock/uc3c/pll.o
 .debug_aranges
                0x00000d00       0x20 src/asf/common/services/clock/uc3c/sysclk.o
 .debug_aranges
                0x00000d20       0x20 src/asf/common/services/spi/uc3_spi/spi_master.o
 .debug_aranges
                0x00000d40       0x20 src/asf/common/services/usb/class/cdc/device/udi_cdc.o
 .debug_aranges
                0x00000d60       0x20 src/asf/common/services/usb/udc/udc.o
 .debug_aranges
                0x00000d80       0x20 src/asf/common/utils/stdio/read.o
 .debug_aranges
                0x00000da0       0x20 src/asf/common/utils/stdio/stdio_usb/stdio_usb.o
 .debug_aranges
                0x00000dc0       0x20 src/asf/common/utils/stdio/write.o
 .debug_aranges
                0x00000de0       0x20 src/boardsupport.o
 .debug_aranges
                0x00000e00       0x20 src/main.o
 .debug_aranges
                0x00000e20       0x20 d:/programmes/atmel/studio/7.0/toolchain/avr32/avr32-gnu-toolchain/bin/../lib/gcc/avr32/4.4.7/../../../../avr32/lib/ucr3fp\libm.a(lib_a-s_cos.o)
 .debug_aranges
                0x00000e40       0x20 d:/programmes/atmel/studio/7.0/toolchain/avr32/avr32-gnu-toolchain/bin/../lib/gcc/avr32/4.4.7/../../../../avr32/lib/ucr3fp\libm.a(lib_a-s_floor.o)
 .debug_aranges
                0x00000e60       0x20 d:/programmes/atmel/studio/7.0/toolchain/avr32/avr32-gnu-toolchain/bin/../lib/gcc/avr32/4.4.7/../../../../avr32/lib/ucr3fp\libm.a(lib_a-s_sin.o)
 .debug_aranges
                0x00000e80       0x20 d:/programmes/atmel/studio/7.0/toolchain/avr32/avr32-gnu-toolchain/bin/../lib/gcc/avr32/4.4.7/../../../../avr32/lib/ucr3fp\libm.a(lib_a-w_asin.o)
 .debug_aranges
                0x00000ea0       0x20 d:/programmes/atmel/studio/7.0/toolchain/avr32/avr32-gnu-toolchain/bin/../lib/gcc/avr32/4.4.7/../../../../avr32/lib/ucr3fp\libm.a(lib_a-w_atan2.o)
 .debug_aranges
                0x00000ec0       0x20 d:/programmes/atmel/studio/7.0/toolchain/avr32/avr32-gnu-toolchain/bin/../lib/gcc/avr32/4.4.7/../../../../avr32/lib/ucr3fp\libm.a(lib_a-w_fmod.o)
 .debug_aranges
                0x00000ee0       0x20 d:/programmes/atmel/studio/7.0/toolchain/avr32/avr32-gnu-toolchain/bin/../lib/gcc/avr32/4.4.7/../../../../avr32/lib/ucr3fp\libm.a(lib_a-w_pow.o)
 .debug_aranges
                0x00000f00       0x20 d:/programmes/atmel/studio/7.0/toolchain/avr32/avr32-gnu-toolchain/bin/../lib/gcc/avr32/4.4.7/../../../../avr32/lib/ucr3fp\libm.a(lib_a-w_sqrt.o)
 .debug_aranges
                0x00000f20       0x20 d:/programmes/atmel/studio/7.0/toolchain/avr32/avr32-gnu-toolchain/bin/../lib/gcc/avr32/4.4.7/../../../../avr32/lib/ucr3fp\libm.a(lib_a-wf_sqrt.o)
 .debug_aranges
                0x00000f40       0x20 d:/programmes/atmel/studio/7.0/toolchain/avr32/avr32-gnu-toolchain/bin/../lib/gcc/avr32/4.4.7/../../../../avr32/lib/ucr3fp\libm.a(lib_a-e_asin.o)
 .debug_aranges
                0x00000f60       0x20 d:/programmes/atmel/studio/7.0/toolchain/avr32/avr32-gnu-toolchain/bin/../lib/gcc/avr32/4.4.7/../../../../avr32/lib/ucr3fp\libm.a(lib_a-e_atan2.o)
 .debug_aranges
                0x00000f80       0x20 d:/programmes/atmel/studio/7.0/toolchain/avr32/avr32-gnu-toolchain/bin/../lib/gcc/avr32/4.4.7/../../../../avr32/lib/ucr3fp\libm.a(lib_a-e_fmod.o)
 .debug_aranges
                0x00000fa0       0x20 d:/programmes/atmel/studio/7.0/toolchain/avr32/avr32-gnu-toolchain/bin/../lib/gcc/avr32/4.4.7/../../../../avr32/lib/ucr3fp\libm.a(lib_a-e_pow.o)
 .debug_aranges
                0x00000fc0       0x20 d:/programmes/atmel/studio/7.0/toolchain/avr32/avr32-gnu-toolchain/bin/../lib/gcc/avr32/4.4.7/../../../../avr32/lib/ucr3fp\libm.a(lib_a-e_rem_pio2.o)
 .debug_aranges
                0x00000fe0       0x20 d:/programmes/atmel/studio/7.0/toolchain/avr32/avr32-gnu-toolchain/bin/../lib/gcc/avr32/4.4.7/../../../../avr32/lib/ucr3fp\libm.a(lib_a-e_sqrt.o)
 .debug_aranges
                0x00001000       0x20 d:/programmes/atmel/studio/7.0/toolchain/avr32/avr32-gnu-toolchain/bin/../lib/gcc/avr32/4.4.7/../../../../avr32/lib/ucr3fp\libm.a(lib_a-ef_sqrt.o)
 .debug_aranges
                0x00001020       0x20 d:/programmes/atmel/studio/7.0/toolchain/avr32/avr32-gnu-toolchain/bin/../lib/gcc/avr32/4.4.7/../../../../avr32/lib/ucr3fp\libm.a(lib_a-k_cos.o)
 .debug_aranges
                0x00001040       0x20 d:/programmes/atmel/studio/7.0/toolchain/avr32/avr32-gnu-toolchain/bin/../lib/gcc/avr32/4.4.7/../../../../avr32/lib/ucr3fp\libm.a(lib_a-k_rem_pio2.o)
 .debug_aranges
                0x00001060       0x20 d:/programmes/atmel/studio/7.0/toolchain/avr32/avr32-gnu-toolchain/bin/../lib/gcc/avr32/4.4.7/../../../../avr32/lib/ucr3fp\libm.a(lib_a-k_sin.o)
 .debug_aranges
                0x00001080       0x20 d:/programmes/atmel/studio/7.0/toolchain/avr32/avr32-gnu-toolchain/bin/../lib/gcc/avr32/4.4.7/../../../../avr32/lib/ucr3fp\libm.a(lib_a-s_atan.o)
 .debug_aranges
                0x000010a0       0x20 d:/programmes/atmel/studio/7.0/toolchain/avr32/avr32-gnu-toolchain/bin/../lib/gcc/avr32/4.4.7/../../../../avr32/lib/ucr3fp\libm.a(lib_a-s_fabs.o)
 .debug_aranges
                0x000010c0       0x20 d:/programmes/atmel/studio/7.0/toolchain/avr32/avr32-gnu-toolchain/bin/../lib/gcc/avr32/4.4.7/../../../../avr32/lib/ucr3fp\libm.a(lib_a-s_finite.o)
 .debug_aranges
                0x000010e0       0x20 d:/programmes/atmel/studio/7.0/toolchain/avr32/avr32-gnu-toolchain/bin/../lib/gcc/avr32/4.4.7/../../../../avr32/lib/ucr3fp\libm.a(lib_a-s_isnand.o)
 .debug_aranges
                0x00001100       0x20 d:/programmes/atmel/studio/7.0/toolchain/avr32/avr32-gnu-toolchain/bin/../lib/gcc/avr32/4.4.7/../../../../avr32/lib/ucr3fp\libm.a(lib_a-s_matherr.o)
 .debug_aranges
                0x00001120       0x20 d:/programmes/atmel/studio/7.0/toolchain/avr32/avr32-gnu-toolchain/bin/../lib/gcc/avr32/4.4.7/../../../../avr32/lib/ucr3fp\libm.a(lib_a-s_nan.o)
 .debug_aranges
                0x00001140       0x20 d:/programmes/atmel/studio/7.0/toolchain/avr32/avr32-gnu-toolchain/bin/../lib/gcc/avr32/4.4.7/../../../../avr32/lib/ucr3fp\libm.a(lib_a-s_rint.o)
 .debug_aranges
                0x00001160       0x20 d:/programmes/atmel/studio/7.0/toolchain/avr32/avr32-gnu-toolchain/bin/../lib/gcc/avr32/4.4.7/../../../../avr32/lib/ucr3fp\libm.a(lib_a-s_scalbn.o)
 .debug_aranges
                0x00001180       0x20 d:/programmes/atmel/studio/7.0/toolchain/avr32/avr32-gnu-toolchain/bin/../lib/gcc/avr32/4.4.7/../../../../avr32/lib/ucr3fp\libm.a(lib_a-sf_isnan.o)
 .debug_aranges
                0x000011a0       0x20 d:/programmes/atmel/studio/7.0/toolchain/avr32/avr32-gnu-toolchain/bin/../lib/gcc/avr32/4.4.7/../../../../avr32/lib/ucr3fp\libm.a(lib_a-s_copysign.o)
 .debug_aranges
                0x000011c0       0x20 d:/programmes/atmel/studio/7.0/toolchain/avr32/avr32-gnu-toolchain/bin/../lib/gcc/avr32/4.4.7/ucr3fp\libgcc.a(_floatdidf.o)
 .debug_aranges
                0x000011e0       0x20 d:/programmes/atmel/studio/7.0/toolchain/avr32/avr32-gnu-toolchain/bin/../lib/gcc/avr32/4.4.7/ucr3fp\libgcc.a(_divdi3.o)
 .debug_aranges
                0x00001200       0x20 d:/programmes/atmel/studio/7.0/toolchain/avr32/avr32-gnu-toolchain/bin/../lib/gcc/avr32/4.4.7/ucr3fp\libgcc.a(_moddi3.o)
 .debug_aranges
                0x00001220       0x20 d:/programmes/atmel/studio/7.0/toolchain/avr32/avr32-gnu-toolchain/bin/../lib/gcc/avr32/4.4.7/ucr3fp\libgcc.a(_udivdi3.o)
 .debug_aranges
                0x00001240       0x20 d:/programmes/atmel/studio/7.0/toolchain/avr32/avr32-gnu-toolchain/bin/../lib/gcc/avr32/4.4.7/ucr3fp\libgcc.a(_umoddi3.o)
 .debug_aranges
                0x00001260       0x20 d:/programmes/atmel/studio/7.0/toolchain/avr32/avr32-gnu-toolchain/bin/../lib/gcc/avr32/4.4.7/../../../../avr32/lib/ucr3fp\libc.a(lib_a-errno.o)
 .debug_aranges
                0x00001280       0x28 d:/programmes/atmel/studio/7.0/toolchain/avr32/avr32-gnu-toolchain/bin/../lib/gcc/avr32/4.4.7/../../../../avr32/lib/ucr3fp\libc.a(lib_a-malloc.o)
 .debug_aranges
                0x000012a8       0x20 d:/programmes/atmel/studio/7.0/toolchain/avr32/avr32-gnu-toolchain/bin/../lib/gcc/avr32/4.4.7/../../../../avr32/lib/ucr3fp\libc.a(lib_a-mallocr.o)
 .debug_aranges
                0x000012c8       0x20 d:/programmes/atmel/studio/7.0/toolchain/avr32/avr32-gnu-toolchain/bin/../lib/gcc/avr32/4.4.7/../../../../avr32/lib/ucr3fp\libc.a(lib_a-memset.o)
 .debug_aranges
                0x000012e8       0x28 d:/programmes/atmel/studio/7.0/toolchain/avr32/avr32-gnu-toolchain/bin/../lib/gcc/avr32/4.4.7/../../../../avr32/lib/ucr3fp\libc.a(lib_a-mlock.o)
 .debug_aranges
                0x00001310       0x28 d:/programmes/atmel/studio/7.0/toolchain/avr32/avr32-gnu-toolchain/bin/../lib/gcc/avr32/4.4.7/../../../../avr32/lib/ucr3fp\libc.a(lib_a-rand.o)
 .debug_aranges
                0x00001338       0x20 d:/programmes/atmel/studio/7.0/toolchain/avr32/avr32-gnu-toolchain/bin/../lib/gcc/avr32/4.4.7/../../../../avr32/lib/ucr3fp\libc.a(lib_a-sbrkr.o)
 .debug_aranges
                0x00001358       0x28 d:/programmes/atmel/studio/7.0/toolchain/avr32/avr32-gnu-toolchain/bin/../lib/gcc/avr32/4.4.7/../../../../avr32/lib/ucr3fp\libc.a(lib_a-snprintf.o)
 .debug_aranges
                0x00001380       0x20 d:/programmes/atmel/studio/7.0/toolchain/avr32/avr32-gnu-toolchain/bin/../lib/gcc/avr32/4.4.7/../../../../avr32/lib/ucr3fp\libc.a(lib_a-strcpy.o)
 .debug_aranges
                0x000013a0       0x20 d:/programmes/atmel/studio/7.0/toolchain/avr32/avr32-gnu-toolchain/bin/../lib/gcc/avr32/4.4.7/../../../../avr32/lib/ucr3fp\libc.a(lib_a-strlen.o)
 .debug_aranges
                0x000013c0       0xf8 d:/programmes/atmel/studio/7.0/toolchain/avr32/avr32-gnu-toolchain/bin/../lib/gcc/avr32/4.4.7/../../../../avr32/lib/ucr3fp\libc.a(lib_a-syscalls.o)
 .debug_aranges
                0x000014b8       0x38 d:/programmes/atmel/studio/7.0/toolchain/avr32/avr32-gnu-toolchain/bin/../lib/gcc/avr32/4.4.7/../../../../avr32/lib/ucr3fp\libc.a(lib_a-vfprintf.o)
 .debug_aranges
                0x000014f0       0x20 d:/programmes/atmel/studio/7.0/toolchain/avr32/avr32-gnu-toolchain/bin/../lib/gcc/avr32/4.4.7/../../../../avr32/lib/ucr3fp\libc.a(lib_a-wsetup.o)
 .debug_aranges
                0x00001510       0x28 d:/programmes/atmel/studio/7.0/toolchain/avr32/avr32-gnu-toolchain/bin/../lib/gcc/avr32/4.4.7/../../../../avr32/lib/ucr3fp\libc.a(lib_a-dtoa.o)
 .debug_aranges
                0x00001538       0x28 d:/programmes/atmel/studio/7.0/toolchain/avr32/avr32-gnu-toolchain/bin/../lib/gcc/avr32/4.4.7/../../../../avr32/lib/ucr3fp\libc.a(lib_a-fflush.o)
 .debug_aranges
                0x00001560       0x80 d:/programmes/atmel/studio/7.0/toolchain/avr32/avr32-gnu-toolchain/bin/../lib/gcc/avr32/4.4.7/../../../../avr32/lib/ucr3fp\libc.a(lib_a-findfp.o)
 .debug_aranges
                0x000015e0       0x28 d:/programmes/atmel/studio/7.0/toolchain/avr32/avr32-gnu-toolchain/bin/../lib/gcc/avr32/4.4.7/../../../../avr32/lib/ucr3fp\libc.a(lib_a-freer.o)
 .debug_aranges
                0x00001608       0x20 d:/programmes/atmel/studio/7.0/toolchain/avr32/avr32-gnu-toolchain/bin/../lib/gcc/avr32/4.4.7/../../../../avr32/lib/ucr3fp\libc.a(lib_a-fvwrite.o)
 .debug_aranges
                0x00001628       0x28 d:/programmes/atmel/studio/7.0/toolchain/avr32/avr32-gnu-toolchain/bin/../lib/gcc/avr32/4.4.7/../../../../avr32/lib/ucr3fp\libc.a(lib_a-fwalk.o)
 .debug_aranges
                0x00001650       0x40 d:/programmes/atmel/studio/7.0/toolchain/avr32/avr32-gnu-toolchain/bin/../lib/gcc/avr32/4.4.7/../../../../avr32/lib/ucr3fp\libc.a(lib_a-locale.o)
 .debug_aranges
                0x00001690       0x20 d:/programmes/atmel/studio/7.0/toolchain/avr32/avr32-gnu-toolchain/bin/../lib/gcc/avr32/4.4.7/../../../../avr32/lib/ucr3fp\libc.a(lib_a-makebuf.o)
 .debug_aranges
                0x000016b0       0x20 d:/programmes/atmel/studio/7.0/toolchain/avr32/avr32-gnu-toolchain/bin/../lib/gcc/avr32/4.4.7/../../../../avr32/lib/ucr3fp\libc.a(lib_a-memchr.o)
 .debug_aranges
                0x000016d0       0x20 d:/programmes/atmel/studio/7.0/toolchain/avr32/avr32-gnu-toolchain/bin/../lib/gcc/avr32/4.4.7/../../../../avr32/lib/ucr3fp\libc.a(lib_a-memmove.o)
 .debug_aranges
                0x000016f0       0xb0 d:/programmes/atmel/studio/7.0/toolchain/avr32/avr32-gnu-toolchain/bin/../lib/gcc/avr32/4.4.7/../../../../avr32/lib/ucr3fp\libc.a(lib_a-mprec.o)
 .debug_aranges
                0x000017a0       0x20 d:/programmes/atmel/studio/7.0/toolchain/avr32/avr32-gnu-toolchain/bin/../lib/gcc/avr32/4.4.7/../../../../avr32/lib/ucr3fp\libc.a(lib_a-reallocr.o)
 .debug_aranges
                0x000017c0       0x30 d:/programmes/atmel/studio/7.0/toolchain/avr32/avr32-gnu-toolchain/bin/../lib/gcc/avr32/4.4.7/../../../../avr32/lib/ucr3fp\libc.a(lib_a-reent.o)
 .debug_aranges
                0x000017f0       0x20 d:/programmes/atmel/studio/7.0/toolchain/avr32/avr32-gnu-toolchain/bin/../lib/gcc/avr32/4.4.7/../../../../avr32/lib/ucr3fp\libc.a(lib_a-s_isinfd.o)
 .debug_aranges
                0x00001810       0x38 d:/programmes/atmel/studio/7.0/toolchain/avr32/avr32-gnu-toolchain/bin/../lib/gcc/avr32/4.4.7/../../../../avr32/lib/ucr3fp\libc.a(lib_a-stdio.o)
 .debug_aranges
                0x00001848       0x20 d:/programmes/atmel/studio/7.0/toolchain/avr32/avr32-gnu-toolchain/bin/../lib/gcc/avr32/4.4.7/../../../../avr32/lib/ucr3fp\libc.a(lib_a-writer.o)
 .debug_aranges
                0x00001868       0x20 d:/programmes/atmel/studio/7.0/toolchain/avr32/avr32-gnu-toolchain/bin/../lib/gcc/avr32/4.4.7/../../../../avr32/lib/ucr3fp\libc.a(lib_a-callocr.o)
 .debug_aranges
                0x00001888       0x20 d:/programmes/atmel/studio/7.0/toolchain/avr32/avr32-gnu-toolchain/bin/../lib/gcc/avr32/4.4.7/../../../../avr32/lib/ucr3fp\libc.a(lib_a-closer.o)
 .debug_aranges
                0x000018a8       0x28 d:/programmes/atmel/studio/7.0/toolchain/avr32/avr32-gnu-toolchain/bin/../lib/gcc/avr32/4.4.7/../../../../avr32/lib/ucr3fp\libc.a(lib_a-fclose.o)
 .debug_aranges
                0x000018d0       0x20 d:/programmes/atmel/studio/7.0/toolchain/avr32/avr32-gnu-toolchain/bin/../lib/gcc/avr32/4.4.7/../../../../avr32/lib/ucr3fp\libc.a(lib_a-fstatr.o)
 .debug_aranges
                0x000018f0       0x20 d:/programmes/atmel/studio/7.0/toolchain/avr32/avr32-gnu-toolchain/bin/../lib/gcc/avr32/4.4.7/../../../../avr32/lib/ucr3fp\libc.a(lib_a-lseekr.o)
 .debug_aranges
                0x00001910       0x20 d:/programmes/atmel/studio/7.0/toolchain/avr32/avr32-gnu-toolchain/bin/../lib/gcc/avr32/4.4.7/../../../../avr32/lib/ucr3fp\libc.a(lib_a-readr.o)

.debug_pubnames
                0x00000000     0x956a
 *(.debug_pubnames)
 .debug_pubnames
                0x00000000       0x9b Library/communication/console.o
 .debug_pubnames
                0x0000009b      0x200 Library/communication/data_logging.o
 .debug_pubnames
                0x0000029b       0x58 Library/communication/data_logging_telemetry.o
 .debug_pubnames
                0x000002f3      0x17f Library/communication/hud_telemetry.o
 .debug_pubnames
                0x00000472       0xcd Library/communication/mavlink_communication.o
 .debug_pubnames
                0x0000053f      0x109 Library/communication/mavlink_message_handler.o
 .debug_pubnames
                0x00000648      0x238 Library/communication/mavlink_waypoint_handler.o
 .debug_pubnames
                0x00000880      0x20a Library/communication/remote.o
 .debug_pubnames
                0x00000a8a       0x91 Library/communication/remote_telemetry.o
 .debug_pubnames
                0x00000b1b       0x41 Library/communication/state.o
 .debug_pubnames
                0x00000b5c      0x179 Library/communication/state_machine.o
 .debug_pubnames
                0x00000cd5       0x6e Library/communication/state_telemetry.o
 .debug_pubnames
                0x00000d43       0xc2 Library/control/adaptive_parameter.o
 .debug_pubnames
                0x00000e05       0x4e Library/control/altitude_controller.o
 .debug_pubnames
                0x00000e53       0x4e Library/control/attitude_controller.o
 .debug_pubnames
                0x00000ea1       0x54 Library/control/attitude_controller_p2.o
 .debug_pubnames
                0x00000ef5       0xe9 Library/control/attitude_error_estimator.o
 .debug_pubnames
                0x00000fde      0x24c Library/control/joystick_parsing.o
 .debug_pubnames
                0x0000122a       0x93 Library/control/joystick_parsing_telemetry.o
 .debug_pubnames
                0x000012bd       0xaa Library/control/pid_controller.o
 .debug_pubnames
                0x00001367       0x5d Library/control/servos_mix_quadcopter_cross.o
 .debug_pubnames
                0x000013c4       0x5b Library/control/servos_mix_quadcopter_diag.o
 .debug_pubnames
                0x0000141f      0x21c Library/control/stabilisation_copter.o
 .debug_pubnames
                0x0000163b       0xd2 Library/control/stabilisation_telemetry.o
 .debug_pubnames
                0x0000170d      0x189 Library/control/vector_field_waypoint.o
 .debug_pubnames
                0x00001896      0x193 Library/control/velocity_controller_copter.o
 .debug_pubnames
                0x00001a29       0x3a Library/hal/analog_monitor_telemetry.o
 .debug_pubnames
                0x00001a63       0x76 Library/hal/analog_monitor.o
 .debug_pubnames
                0x00001ad9       0x35 Library/hal/bmp085_telemetry.o
 .debug_pubnames
                0x00001b0e       0x84 Library/hal/fat_fs/diskio.o
 .debug_pubnames
                0x00001b92      0x149 Library/hal/fat_fs/ff.o
 .debug_pubnames
                0x00001cdb       0x31 Library/hal/fat_fs/option/ccsbcs.o
 .debug_pubnames
                0x00001d0c       0x31 Library/hal/fat_fs/option/syscall.o
 .debug_pubnames
                0x00001d3d      0x7d6 Library/hal/gps_ublox.o
 .debug_pubnames
                0x00002513      0x144 Library/hal/gps_ublox_telemetry.o
 .debug_pubnames
                0x00002657       0x3d Library/hal/hmc5883l.o
 .debug_pubnames
                0x00002694       0xa1 Library/hal/i2c_driver_int.o
 .debug_pubnames
                0x00002735       0x58 Library/hal/lsm330dlc.o
 .debug_pubnames
                0x0000278d      0x11f Library/hal/piezo_speaker.o
 .debug_pubnames
                0x000028ac       0xcd Library/hal/pwm_servos.o
 .debug_pubnames
                0x00002979      0x252 Library/hal/sd_spi.o
 .debug_pubnames
                0x00002bcb       0x55 Library/hal/servos.o
 .debug_pubnames
                0x00002c20       0x34 Library/hal/servos_telemetry.o
 .debug_pubnames
                0x00002c54      0x112 Library/hal/sonar_i2cxl.o
 .debug_pubnames
                0x00002d66       0x2b Library/hal/sonar_telemetry.o
 .debug_pubnames
                0x00002d91      0x119 Library/hal/spektrum_satellite.o
 .debug_pubnames
                0x00002eaa       0xef Library/hal/time_keeper.o
 .debug_pubnames
                0x00002f99       0xb0 Library/hal/usb_int.o
 .debug_pubnames
                0x00003049       0x89 Library/hal/xbee.o
 .debug_pubnames
                0x000030d2       0x38 Library/runtime/scheduler_telemetry.o
 .debug_pubnames
                0x0000310a       0x20 Library/sensing/ahrs.o
 .debug_pubnames
                0x0000312a       0x5f Library/sensing/ahrs_telemetry.o
 .debug_pubnames
                0x00003189       0x4e Library/sensing/altitude_estimation.o
 .debug_pubnames
                0x000031d7       0x62 Library/sensing/imu_telemetry.o
 .debug_pubnames
                0x00003239      0x1b1 Library/sensing/position_estimation.o
 .debug_pubnames
                0x000033ea      0x1d7 Library/sensing/position_estimation_telemetry.o
 .debug_pubnames
                0x000035c1       0x36 Library/sensing/qfilter.o
 .debug_pubnames
                0x000035f7      0x1b5 Library/sensing/simulation_telemetry.o
 .debug_pubnames
                0x000037ac       0x2d Library/util/linear_algebra.o
 .debug_pubnames
                0x000037d9       0xed Library/util/matrixlib_float.o
 .debug_pubnames
                0x000038c6      0x163 Library/util/quick_trig.o
 .debug_pubnames
                0x00003a29      0x30c src/central_data.o
 .debug_pubnames
                0x00003d35      0x204 src/mavlink_telemetry.o
 .debug_pubnames
                0x00003f39      0x229 src/tasks.o
 .debug_pubnames
                0x00004162       0x76 Library/communication/mavlink_stream.o
 .debug_pubnames
                0x000041d8      0x13e Library/communication/onboard_parameters.o
 .debug_pubnames
                0x00004316      0x195 Library/control/navigation.o
 .debug_pubnames
                0x000044ab       0x3f Library/control/stabilisation.o
 .debug_pubnames
                0x000044ea      0x1a1 Library/hal/adc_int.o
 .debug_pubnames
                0x0000468b      0x120 Library/hal/ads1274.o
 .debug_pubnames
                0x000047ab       0xbd Library/hal/bmp085.o
 .debug_pubnames
                0x00004868       0xee Library/hal/dac_dma.o
 .debug_pubnames
                0x00004956       0xf6 Library/hal/led.o
 .debug_pubnames
                0x00004a4c      0x285 Library/hal/spi_buffered.o
 .debug_pubnames
                0x00004cd1      0x133 Library/hal/uart_int.o
 .debug_pubnames
                0x00004e04      0x11c Library/runtime/scheduler.o
 .debug_pubnames
                0x00004f20       0x2e Library/sensing/imu.o
 .debug_pubnames
                0x00004f4e      0x287 Library/sensing/simulation.o
 .debug_pubnames
                0x000051d5       0xe8 Library/util/buffer.o
 .debug_pubnames
                0x000052bd       0xdc Library/util/coord_conventions.o
 .debug_pubnames
                0x00005399       0x9b Library/util/generator.o
 .debug_pubnames
                0x00005434      0x23c Library/util/print_util.o
 .debug_pubnames
                0x00005670       0x20 Library/util/sinus.o
 .debug_pubnames
                0x00005690      0x177 src/asf/avr32/drivers/adcifa/adcifa.o
 .debug_pubnames
                0x00005807      0x1e0 src/asf/avr32/drivers/ast/ast.o
 .debug_pubnames
                0x000059e7       0xbf src/asf/avr32/drivers/dacifb/dacifb.o
 .debug_pubnames
                0x00005aa6      0x186 src/asf/avr32/drivers/eic/eic.o
 .debug_pubnames
                0x00005c2c      0x79d src/asf/avr32/drivers/flashc/flashc.o
 .debug_pubnames
                0x000063c9      0x3aa src/asf/avr32/drivers/gpio/gpio.o
 .debug_pubnames
                0x00006773       0x62 src/asf/avr32/drivers/intc/intc.o
 .debug_pubnames
                0x000067d5      0x275 src/asf/avr32/drivers/pdca/pdca.o
 .debug_pubnames
                0x00006a4a      0x2b6 src/asf/avr32/drivers/pevc/pevc.o
 .debug_pubnames
                0x00006d00       0xc3 src/asf/avr32/drivers/pm/pm_uc3c.o
 .debug_pubnames
                0x00006dc3       0x82 src/asf/avr32/drivers/pm/power_clocks_lib.o
 .debug_pubnames
                0x00006e45      0x34b src/asf/avr32/drivers/pwm/pwm4.o
 .debug_pubnames
                0x00007190      0x3f6 src/asf/avr32/drivers/scif/scif_uc3c.o
 .debug_pubnames
                0x00007586      0x178 src/asf/avr32/drivers/spi/spi.o
 .debug_pubnames
                0x000076fe      0x164 src/asf/avr32/drivers/tc/tc.o
 .debug_pubnames
                0x00007862       0xd6 src/asf/avr32/drivers/twim/twim.o
 .debug_pubnames
                0x00007938      0x227 src/asf/avr32/drivers/usart/usart.o
 .debug_pubnames
                0x00007b5f      0x1f1 src/asf/avr32/drivers/usbc/usbc_device.o
 .debug_pubnames
                0x00007d50       0x2e src/asf/avr32/services/delay/delay.o
 .debug_pubnames
                0x00007d7e       0x21 src/asf/common/boards/user_board/init.o
 .debug_pubnames
                0x00007d9f       0xe4 src/asf/common/services/clock/uc3c/osc.o
 .debug_pubnames
                0x00007e83       0x46 src/asf/common/services/clock/uc3c/pll.o
 .debug_pubnames
                0x00007ec9       0xbc src/asf/common/services/clock/uc3c/sysclk.o
 .debug_pubnames
                0x00007f85       0x25 src/asf/common/services/sleepmgr/uc3/sleepmgr.o
 .debug_pubnames
                0x00007faa       0x57 src/asf/common/services/spi/uc3_spi/spi_master.o
 .debug_pubnames
                0x00008001      0x283 src/asf/common/services/usb/class/cdc/device/udi_cdc.o
 .debug_pubnames
                0x00008284       0x63 src/asf/common/services/usb/class/cdc/device/udi_cdc_desc.o
 .debug_pubnames
                0x000082e7       0x64 src/asf/common/services/usb/udc/udc.o
 .debug_pubnames
                0x0000834b       0x28 src/asf/common/utils/stdio/read.o
 .debug_pubnames
                0x00008373       0x95 src/asf/common/utils/stdio/stdio_usb/stdio_usb.o
 .debug_pubnames
                0x00008408       0x38 src/asf/common/utils/stdio/write.o
 .debug_pubnames
                0x00008440      0x15f src/boardsupport.o
 .debug_pubnames
                0x0000859f      0x176 src/main.o
 .debug_pubnames
                0x00008715       0x1a d:/programmes/atmel/studio/7.0/toolchain/avr32/avr32-gnu-toolchain/bin/../lib/gcc/avr32/4.4.7/../../../../avr32/lib/ucr3fp\libm.a(lib_a-s_cos.o)
 .debug_pubnames
                0x0000872f       0x1c d:/programmes/atmel/studio/7.0/toolchain/avr32/avr32-gnu-toolchain/bin/../lib/gcc/avr32/4.4.7/../../../../avr32/lib/ucr3fp\libm.a(lib_a-s_floor.o)
 .debug_pubnames
                0x0000874b       0x1a d:/programmes/atmel/studio/7.0/toolchain/avr32/avr32-gnu-toolchain/bin/../lib/gcc/avr32/4.4.7/../../../../avr32/lib/ucr3fp\libm.a(lib_a-s_sin.o)
 .debug_pubnames
                0x00008765       0x1b d:/programmes/atmel/studio/7.0/toolchain/avr32/avr32-gnu-toolchain/bin/../lib/gcc/avr32/4.4.7/../../../../avr32/lib/ucr3fp\libm.a(lib_a-w_asin.o)
 .debug_pubnames
                0x00008780       0x1c d:/programmes/atmel/studio/7.0/toolchain/avr32/avr32-gnu-toolchain/bin/../lib/gcc/avr32/4.4.7/../../../../avr32/lib/ucr3fp\libm.a(lib_a-w_atan2.o)
 .debug_pubnames
                0x0000879c       0x1b d:/programmes/atmel/studio/7.0/toolchain/avr32/avr32-gnu-toolchain/bin/../lib/gcc/avr32/4.4.7/../../../../avr32/lib/ucr3fp\libm.a(lib_a-w_fmod.o)
 .debug_pubnames
                0x000087b7       0x1a d:/programmes/atmel/studio/7.0/toolchain/avr32/avr32-gnu-toolchain/bin/../lib/gcc/avr32/4.4.7/../../../../avr32/lib/ucr3fp\libm.a(lib_a-w_pow.o)
 .debug_pubnames
                0x000087d1       0x1b d:/programmes/atmel/studio/7.0/toolchain/avr32/avr32-gnu-toolchain/bin/../lib/gcc/avr32/4.4.7/../../../../avr32/lib/ucr3fp\libm.a(lib_a-w_sqrt.o)
 .debug_pubnames
                0x000087ec       0x1c d:/programmes/atmel/studio/7.0/toolchain/avr32/avr32-gnu-toolchain/bin/../lib/gcc/avr32/4.4.7/../../../../avr32/lib/ucr3fp\libm.a(lib_a-wf_sqrt.o)
 .debug_pubnames
                0x00008808       0x25 d:/programmes/atmel/studio/7.0/toolchain/avr32/avr32-gnu-toolchain/bin/../lib/gcc/avr32/4.4.7/../../../../avr32/lib/ucr3fp\libm.a(lib_a-e_asin.o)
 .debug_pubnames
                0x0000882d       0x26 d:/programmes/atmel/studio/7.0/toolchain/avr32/avr32-gnu-toolchain/bin/../lib/gcc/avr32/4.4.7/../../../../avr32/lib/ucr3fp\libm.a(lib_a-e_atan2.o)
 .debug_pubnames
                0x00008853       0x25 d:/programmes/atmel/studio/7.0/toolchain/avr32/avr32-gnu-toolchain/bin/../lib/gcc/avr32/4.4.7/../../../../avr32/lib/ucr3fp\libm.a(lib_a-e_fmod.o)
 .debug_pubnames
                0x00008878       0x24 d:/programmes/atmel/studio/7.0/toolchain/avr32/avr32-gnu-toolchain/bin/../lib/gcc/avr32/4.4.7/../../../../avr32/lib/ucr3fp\libm.a(lib_a-e_pow.o)
 .debug_pubnames
                0x0000889c       0x29 d:/programmes/atmel/studio/7.0/toolchain/avr32/avr32-gnu-toolchain/bin/../lib/gcc/avr32/4.4.7/../../../../avr32/lib/ucr3fp\libm.a(lib_a-e_rem_pio2.o)
 .debug_pubnames
                0x000088c5       0x25 d:/programmes/atmel/studio/7.0/toolchain/avr32/avr32-gnu-toolchain/bin/../lib/gcc/avr32/4.4.7/../../../../avr32/lib/ucr3fp\libm.a(lib_a-e_sqrt.o)
 .debug_pubnames
                0x000088ea       0x26 d:/programmes/atmel/studio/7.0/toolchain/avr32/avr32-gnu-toolchain/bin/../lib/gcc/avr32/4.4.7/../../../../avr32/lib/ucr3fp\libm.a(lib_a-ef_sqrt.o)
 .debug_pubnames
                0x00008910       0x23 d:/programmes/atmel/studio/7.0/toolchain/avr32/avr32-gnu-toolchain/bin/../lib/gcc/avr32/4.4.7/../../../../avr32/lib/ucr3fp\libm.a(lib_a-k_cos.o)
 .debug_pubnames
                0x00008933       0x28 d:/programmes/atmel/studio/7.0/toolchain/avr32/avr32-gnu-toolchain/bin/../lib/gcc/avr32/4.4.7/../../../../avr32/lib/ucr3fp\libm.a(lib_a-k_rem_pio2.o)
 .debug_pubnames
                0x0000895b       0x23 d:/programmes/atmel/studio/7.0/toolchain/avr32/avr32-gnu-toolchain/bin/../lib/gcc/avr32/4.4.7/../../../../avr32/lib/ucr3fp\libm.a(lib_a-k_sin.o)
 .debug_pubnames
                0x0000897e       0x1b d:/programmes/atmel/studio/7.0/toolchain/avr32/avr32-gnu-toolchain/bin/../lib/gcc/avr32/4.4.7/../../../../avr32/lib/ucr3fp\libm.a(lib_a-s_atan.o)
 .debug_pubnames
                0x00008999       0x1b d:/programmes/atmel/studio/7.0/toolchain/avr32/avr32-gnu-toolchain/bin/../lib/gcc/avr32/4.4.7/../../../../avr32/lib/ucr3fp\libm.a(lib_a-s_fabs.o)
 .debug_pubnames
                0x000089b4       0x1d d:/programmes/atmel/studio/7.0/toolchain/avr32/avr32-gnu-toolchain/bin/../lib/gcc/avr32/4.4.7/../../../../avr32/lib/ucr3fp\libm.a(lib_a-s_finite.o)
 .debug_pubnames
                0x000089d1       0x1f d:/programmes/atmel/studio/7.0/toolchain/avr32/avr32-gnu-toolchain/bin/../lib/gcc/avr32/4.4.7/../../../../avr32/lib/ucr3fp\libm.a(lib_a-s_isnand.o)
 .debug_pubnames
                0x000089f0       0x26 d:/programmes/atmel/studio/7.0/toolchain/avr32/avr32-gnu-toolchain/bin/../lib/gcc/avr32/4.4.7/../../../../avr32/lib/ucr3fp\libm.a(lib_a-s_lib_ver.o)
 .debug_pubnames
                0x00008a16       0x1e d:/programmes/atmel/studio/7.0/toolchain/avr32/avr32-gnu-toolchain/bin/../lib/gcc/avr32/4.4.7/../../../../avr32/lib/ucr3fp\libm.a(lib_a-s_matherr.o)
 .debug_pubnames
                0x00008a34       0x1a d:/programmes/atmel/studio/7.0/toolchain/avr32/avr32-gnu-toolchain/bin/../lib/gcc/avr32/4.4.7/../../../../avr32/lib/ucr3fp\libm.a(lib_a-s_nan.o)
 .debug_pubnames
                0x00008a4e       0x1b d:/programmes/atmel/studio/7.0/toolchain/avr32/avr32-gnu-toolchain/bin/../lib/gcc/avr32/4.4.7/../../../../avr32/lib/ucr3fp\libm.a(lib_a-s_rint.o)
 .debug_pubnames
                0x00008a69       0x1d d:/programmes/atmel/studio/7.0/toolchain/avr32/avr32-gnu-toolchain/bin/../lib/gcc/avr32/4.4.7/../../../../avr32/lib/ucr3fp\libm.a(lib_a-s_scalbn.o)
 .debug_pubnames
                0x00008a86       0x1d d:/programmes/atmel/studio/7.0/toolchain/avr32/avr32-gnu-toolchain/bin/../lib/gcc/avr32/4.4.7/../../../../avr32/lib/ucr3fp\libm.a(lib_a-sf_isnan.o)
 .debug_pubnames
                0x00008aa3       0x1f d:/programmes/atmel/studio/7.0/toolchain/avr32/avr32-gnu-toolchain/bin/../lib/gcc/avr32/4.4.7/../../../../avr32/lib/ucr3fp\libm.a(lib_a-s_copysign.o)
 .debug_pubnames
                0x00008ac2       0x22 d:/programmes/atmel/studio/7.0/toolchain/avr32/avr32-gnu-toolchain/bin/../lib/gcc/avr32/4.4.7/ucr3fp\libgcc.a(_floatdidf.o)
 .debug_pubnames
                0x00008ae4       0x1f d:/programmes/atmel/studio/7.0/toolchain/avr32/avr32-gnu-toolchain/bin/../lib/gcc/avr32/4.4.7/ucr3fp\libgcc.a(_divdi3.o)
 .debug_pubnames
                0x00008b03       0x1f d:/programmes/atmel/studio/7.0/toolchain/avr32/avr32-gnu-toolchain/bin/../lib/gcc/avr32/4.4.7/ucr3fp\libgcc.a(_moddi3.o)
 .debug_pubnames
                0x00008b22       0x20 d:/programmes/atmel/studio/7.0/toolchain/avr32/avr32-gnu-toolchain/bin/../lib/gcc/avr32/4.4.7/ucr3fp\libgcc.a(_udivdi3.o)
 .debug_pubnames
                0x00008b42       0x20 d:/programmes/atmel/studio/7.0/toolchain/avr32/avr32-gnu-toolchain/bin/../lib/gcc/avr32/4.4.7/ucr3fp\libgcc.a(_umoddi3.o)
 .debug_pubnames
                0x00008b62       0x1e d:/programmes/atmel/studio/7.0/toolchain/avr32/avr32-gnu-toolchain/bin/../lib/gcc/avr32/4.4.7/../../../../avr32/lib/ucr3fp\libc.a(lib_a-errno.o)
 .debug_pubnames
                0x00008b80       0x39 d:/programmes/atmel/studio/7.0/toolchain/avr32/avr32-gnu-toolchain/bin/../lib/gcc/avr32/4.4.7/../../../../avr32/lib/ucr3fp\libc.a(lib_a-impure.o)
 .debug_pubnames
                0x00008bb9       0x26 d:/programmes/atmel/studio/7.0/toolchain/avr32/avr32-gnu-toolchain/bin/../lib/gcc/avr32/4.4.7/../../../../avr32/lib/ucr3fp\libc.a(lib_a-malloc.o)
 .debug_pubnames
                0x00008bdf       0xce d:/programmes/atmel/studio/7.0/toolchain/avr32/avr32-gnu-toolchain/bin/../lib/gcc/avr32/4.4.7/../../../../avr32/lib/ucr3fp\libc.a(lib_a-mallocr.o)
 .debug_pubnames
                0x00008cad       0x1d d:/programmes/atmel/studio/7.0/toolchain/avr32/avr32-gnu-toolchain/bin/../lib/gcc/avr32/4.4.7/../../../../avr32/lib/ucr3fp\libc.a(lib_a-memset.o)
 .debug_pubnames
                0x00008cca       0x38 d:/programmes/atmel/studio/7.0/toolchain/avr32/avr32-gnu-toolchain/bin/../lib/gcc/avr32/4.4.7/../../../../avr32/lib/ucr3fp\libc.a(lib_a-mlock.o)
 .debug_pubnames
                0x00008d02       0x25 d:/programmes/atmel/studio/7.0/toolchain/avr32/avr32-gnu-toolchain/bin/../lib/gcc/avr32/4.4.7/../../../../avr32/lib/ucr3fp\libc.a(lib_a-rand.o)
 .debug_pubnames
                0x00008d27       0x1e d:/programmes/atmel/studio/7.0/toolchain/avr32/avr32-gnu-toolchain/bin/../lib/gcc/avr32/4.4.7/../../../../avr32/lib/ucr3fp\libc.a(lib_a-sbrkr.o)
 .debug_pubnames
                0x00008d45       0x2f d:/programmes/atmel/studio/7.0/toolchain/avr32/avr32-gnu-toolchain/bin/../lib/gcc/avr32/4.4.7/../../../../avr32/lib/ucr3fp\libc.a(lib_a-snprintf.o)
 .debug_pubnames
                0x00008d74       0x1d d:/programmes/atmel/studio/7.0/toolchain/avr32/avr32-gnu-toolchain/bin/../lib/gcc/avr32/4.4.7/../../../../avr32/lib/ucr3fp\libc.a(lib_a-strcpy.o)
 .debug_pubnames
                0x00008d91       0x1d d:/programmes/atmel/studio/7.0/toolchain/avr32/avr32-gnu-toolchain/bin/../lib/gcc/avr32/4.4.7/../../../../avr32/lib/ucr3fp\libc.a(lib_a-strlen.o)
 .debug_pubnames
                0x00008dae      0x171 d:/programmes/atmel/studio/7.0/toolchain/avr32/avr32-gnu-toolchain/bin/../lib/gcc/avr32/4.4.7/../../../../avr32/lib/ucr3fp\libc.a(lib_a-syscalls.o)
 .debug_pubnames
                0x00008f1f       0x2f d:/programmes/atmel/studio/7.0/toolchain/avr32/avr32-gnu-toolchain/bin/../lib/gcc/avr32/4.4.7/../../../../avr32/lib/ucr3fp\libc.a(lib_a-vfprintf.o)
 .debug_pubnames
                0x00008f4e       0x22 d:/programmes/atmel/studio/7.0/toolchain/avr32/avr32-gnu-toolchain/bin/../lib/gcc/avr32/4.4.7/../../../../avr32/lib/ucr3fp\libc.a(lib_a-wsetup.o)
 .debug_pubnames
                0x00008f70       0x1e d:/programmes/atmel/studio/7.0/toolchain/avr32/avr32-gnu-toolchain/bin/../lib/gcc/avr32/4.4.7/../../../../avr32/lib/ucr3fp\libc.a(lib_a-dtoa.o)
 .debug_pubnames
                0x00008f8e       0x2b d:/programmes/atmel/studio/7.0/toolchain/avr32/avr32-gnu-toolchain/bin/../lib/gcc/avr32/4.4.7/../../../../avr32/lib/ucr3fp\libc.a(lib_a-fflush.o)
 .debug_pubnames
                0x00008fb9      0x119 d:/programmes/atmel/studio/7.0/toolchain/avr32/avr32-gnu-toolchain/bin/../lib/gcc/avr32/4.4.7/../../../../avr32/lib/ucr3fp\libc.a(lib_a-findfp.o)
 .debug_pubnames
                0x000090d2       0x31 d:/programmes/atmel/studio/7.0/toolchain/avr32/avr32-gnu-toolchain/bin/../lib/gcc/avr32/4.4.7/../../../../avr32/lib/ucr3fp\libc.a(lib_a-freer.o)
 .debug_pubnames
                0x00009103       0x23 d:/programmes/atmel/studio/7.0/toolchain/avr32/avr32-gnu-toolchain/bin/../lib/gcc/avr32/4.4.7/../../../../avr32/lib/ucr3fp\libc.a(lib_a-fvwrite.o)
 .debug_pubnames
                0x00009126       0x2e d:/programmes/atmel/studio/7.0/toolchain/avr32/avr32-gnu-toolchain/bin/../lib/gcc/avr32/4.4.7/../../../../avr32/lib/ucr3fp\libc.a(lib_a-fwalk.o)
 .debug_pubnames
                0x00009154       0xc3 d:/programmes/atmel/studio/7.0/toolchain/avr32/avr32-gnu-toolchain/bin/../lib/gcc/avr32/4.4.7/../../../../avr32/lib/ucr3fp\libc.a(lib_a-locale.o)
 .debug_pubnames
                0x00009217       0x23 d:/programmes/atmel/studio/7.0/toolchain/avr32/avr32-gnu-toolchain/bin/../lib/gcc/avr32/4.4.7/../../../../avr32/lib/ucr3fp\libc.a(lib_a-makebuf.o)
 .debug_pubnames
                0x0000923a       0x1d d:/programmes/atmel/studio/7.0/toolchain/avr32/avr32-gnu-toolchain/bin/../lib/gcc/avr32/4.4.7/../../../../avr32/lib/ucr3fp\libc.a(lib_a-memchr.o)
 .debug_pubnames
                0x00009257       0x1e d:/programmes/atmel/studio/7.0/toolchain/avr32/avr32-gnu-toolchain/bin/../lib/gcc/avr32/4.4.7/../../../../avr32/lib/ucr3fp\libc.a(lib_a-memmove.o)
 .debug_pubnames
                0x00009275      0x13a d:/programmes/atmel/studio/7.0/toolchain/avr32/avr32-gnu-toolchain/bin/../lib/gcc/avr32/4.4.7/../../../../avr32/lib/ucr3fp\libc.a(lib_a-mprec.o)
 .debug_pubnames
                0x000093af       0x21 d:/programmes/atmel/studio/7.0/toolchain/avr32/avr32-gnu-toolchain/bin/../lib/gcc/avr32/4.4.7/../../../../avr32/lib/ucr3fp\libc.a(lib_a-reallocr.o)
 .debug_pubnames
                0x000093d0       0x52 d:/programmes/atmel/studio/7.0/toolchain/avr32/avr32-gnu-toolchain/bin/../lib/gcc/avr32/4.4.7/../../../../avr32/lib/ucr3fp\libc.a(lib_a-reent.o)
 .debug_pubnames
                0x00009422       0x1f d:/programmes/atmel/studio/7.0/toolchain/avr32/avr32-gnu-toolchain/bin/../lib/gcc/avr32/4.4.7/../../../../avr32/lib/ucr3fp\libc.a(lib_a-s_isinfd.o)
 .debug_pubnames
                0x00009441       0x44 d:/programmes/atmel/studio/7.0/toolchain/avr32/avr32-gnu-toolchain/bin/../lib/gcc/avr32/4.4.7/../../../../avr32/lib/ucr3fp\libc.a(lib_a-stdio.o)
 .debug_pubnames
                0x00009485       0x1f d:/programmes/atmel/studio/7.0/toolchain/avr32/avr32-gnu-toolchain/bin/../lib/gcc/avr32/4.4.7/../../../../avr32/lib/ucr3fp\libc.a(lib_a-writer.o)
 .debug_pubnames
                0x000094a4       0x20 d:/programmes/atmel/studio/7.0/toolchain/avr32/avr32-gnu-toolchain/bin/../lib/gcc/avr32/4.4.7/../../../../avr32/lib/ucr3fp\libc.a(lib_a-callocr.o)
 .debug_pubnames
                0x000094c4       0x1f d:/programmes/atmel/studio/7.0/toolchain/avr32/avr32-gnu-toolchain/bin/../lib/gcc/avr32/4.4.7/../../../../avr32/lib/ucr3fp\libc.a(lib_a-closer.o)
 .debug_pubnames
                0x000094e3       0x2b d:/programmes/atmel/studio/7.0/toolchain/avr32/avr32-gnu-toolchain/bin/../lib/gcc/avr32/4.4.7/../../../../avr32/lib/ucr3fp\libc.a(lib_a-fclose.o)
 .debug_pubnames
                0x0000950e       0x1f d:/programmes/atmel/studio/7.0/toolchain/avr32/avr32-gnu-toolchain/bin/../lib/gcc/avr32/4.4.7/../../../../avr32/lib/ucr3fp\libc.a(lib_a-fstatr.o)
 .debug_pubnames
                0x0000952d       0x1f d:/programmes/atmel/studio/7.0/toolchain/avr32/avr32-gnu-toolchain/bin/../lib/gcc/avr32/4.4.7/../../../../avr32/lib/ucr3fp\libc.a(lib_a-lseekr.o)
 .debug_pubnames
                0x0000954c       0x1e d:/programmes/atmel/studio/7.0/toolchain/avr32/avr32-gnu-toolchain/bin/../lib/gcc/avr32/4.4.7/../../../../avr32/lib/ucr3fp\libc.a(lib_a-readr.o)

.debug_info     0x00000000    0xe9844
 *(.debug_info .gnu.linkonce.wi.*)
 .debug_info    0x00000000     0x2a31 Library/communication/console.o
 .debug_info    0x00002a31     0x3f17 Library/communication/data_logging.o
 .debug_info    0x00006948     0x3b55 Library/communication/data_logging_telemetry.o
 .debug_info    0x0000a49d     0x419e Library/communication/hud_telemetry.o
 .debug_info    0x0000e63b     0x134a Library/communication/mavlink_communication.o
 .debug_info    0x0000f985     0x1652 Library/communication/mavlink_message_handler.o
 .debug_info    0x00010fd7     0x7742 Library/communication/mavlink_waypoint_handler.o
 .debug_info    0x00018719     0x364d Library/communication/remote.o
 .debug_info    0x0001bd66     0x4073 Library/communication/remote_telemetry.o
 .debug_info    0x0001fdd9      0x5a2 Library/communication/state.o
 .debug_info    0x0002037b     0x3ffc Library/communication/state_machine.o
 .debug_info    0x00024377     0x1a2a Library/communication/state_telemetry.o
 .debug_info    0x00025da1      0x31c Library/control/adaptive_parameter.o
 .debug_info    0x000260bd      0x285 Library/control/altitude_controller.o
 .debug_info    0x00026342      0x669 Library/control/attitude_controller.o
 .debug_info    0x000269ab      0x37b Library/control/attitude_controller_p2.o
 .debug_info    0x00026d26      0x49d Library/control/attitude_error_estimator.o
 .debug_info    0x000271c3      0xe3f Library/control/joystick_parsing.o
 .debug_info    0x00028002     0x1882 Library/control/joystick_parsing_telemetry.o
 .debug_info    0x00029884      0x614 Library/control/pid_controller.o
 .debug_info    0x00029e98      0x414 Library/control/servos_mix_quadcopter_cross.o
 .debug_info    0x0002a2ac      0x414 Library/control/servos_mix_quadcopter_diag.o
 .debug_info    0x0002a6c0     0x50ca Library/control/stabilisation_copter.o
 .debug_info    0x0002f78a     0x1501 Library/control/stabilisation_telemetry.o
 .debug_info    0x00030c8b     0x4e8d Library/control/vector_field_waypoint.o
 .debug_info    0x00035b18     0x4088 Library/control/velocity_controller_copter.o
 .debug_info    0x00039ba0      0xa04 Library/hal/analog_monitor_telemetry.o
 .debug_info    0x0003a5a4      0x2dd Library/hal/analog_monitor.o
 .debug_info    0x0003a881      0x9fa Library/hal/bmp085_telemetry.o
 .debug_info    0x0003b27b      0x3cf Library/hal/fat_fs/diskio.o
 .debug_info    0x0003b64a     0x3309 Library/hal/fat_fs/ff.o
 .debug_info    0x0003e953      0x166 Library/hal/fat_fs/option/ccsbcs.o
 .debug_info    0x0003eab9       0xd5 Library/hal/fat_fs/option/syscall.o
 .debug_info    0x0003eb8e        0x0 Library/hal/fat_fs/option/unicode.o
 .debug_info    0x0003eb8e     0x4a84 Library/hal/gps_ublox.o
 .debug_info    0x00043612     0x1149 Library/hal/gps_ublox_telemetry.o
 .debug_info    0x0004475b      0xd37 Library/hal/hmc5883l.o
 .debug_info    0x00045492      0xf1f Library/hal/i2c_driver_int.o
 .debug_info    0x000463b1     0x1204 Library/hal/lsm330dlc.o
 .debug_info    0x000475b5      0x29a Library/hal/piezo_speaker.o
 .debug_info    0x0004784f     0x25ae Library/hal/pwm_servos.o
 .debug_info    0x00049dfd     0x234b Library/hal/sd_spi.o
 .debug_info    0x0004c148      0x26f Library/hal/servos.o
 .debug_info    0x0004c3b7      0xa8b Library/hal/servos_telemetry.o
 .debug_info    0x0004ce42      0xde3 Library/hal/sonar_i2cxl.o
 .debug_info    0x0004dc25      0x9eb Library/hal/sonar_telemetry.o
 .debug_info    0x0004e610     0x2da1 Library/hal/spektrum_satellite.o
 .debug_info    0x000513b1      0xc9b Library/hal/time_keeper.o
 .debug_info    0x0005204c      0x320 Library/hal/usb_int.o
 .debug_info    0x0005236c     0x2943 Library/hal/xbee.o
 .debug_info    0x00054caf     0x13b8 Library/runtime/scheduler_telemetry.o
 .debug_info    0x00056067      0x1fe Library/sensing/ahrs.o
 .debug_info    0x00056265      0xdcf Library/sensing/ahrs_telemetry.o
 .debug_info    0x00057034      0x432 Library/sensing/altitude_estimation.o
 .debug_info    0x00057466     0x1b10 Library/sensing/imu_telemetry.o
 .debug_info    0x00058f76     0x3e35 Library/sensing/position_estimation.o
 .debug_info    0x0005cdab     0x49fa Library/sensing/position_estimation_telemetry.o
 .debug_info    0x000617a5     0x1042 Library/sensing/qfilter.o
 .debug_info    0x000627e7     0x5350 Library/sensing/simulation_telemetry.o
 .debug_info    0x00067b37      0x839 Library/util/linear_algebra.o
 .debug_info    0x00068370      0x755 Library/util/matrixlib_float.o
 .debug_info    0x00068ac5      0x5ed Library/util/quick_trig.o
 .debug_info    0x000690b2     0x6956 src/central_data.o
 .debug_info    0x0006fa08     0x5f5f src/mavlink_telemetry.o
 .debug_info    0x00075967     0x5fc6 src/tasks.o
 .debug_info    0x0007b92d      0xb13 Library/communication/mavlink_stream.o
 .debug_info    0x0007c440     0x1e15 Library/communication/onboard_parameters.o
 .debug_info    0x0007e255     0x5f52 Library/control/navigation.o
 .debug_info    0x000841a7      0x3a6 Library/control/stabilisation.o
 .debug_info    0x0008454d     0x1e4e Library/hal/adc_int.o
 .debug_info    0x0008639b     0x4088 Library/hal/ads1274.o
 .debug_info    0x0008a423     0x1213 Library/hal/bmp085.o
 .debug_info    0x0008b636     0x1acf Library/hal/dac_dma.o
 .debug_info    0x0008d105      0xab6 Library/hal/led.o
 .debug_info    0x0008dbbb     0x1dd9 Library/hal/spi_buffered.o
 .debug_info    0x0008f994     0x2ca3 Library/hal/uart_int.o
 .debug_info    0x00092637      0x72e Library/runtime/scheduler.o
 .debug_info    0x00092d65      0x9b2 Library/sensing/imu.o
 .debug_info    0x00093717     0x495e Library/sensing/simulation.o
 .debug_info    0x00098075      0x41d Library/util/buffer.o
 .debug_info    0x00098492      0x354 Library/util/coord_conventions.o
 .debug_info    0x000987e6      0x216 Library/util/generator.o
 .debug_info    0x000989fc      0x7dc Library/util/print_util.o
 .debug_info    0x000991d8       0xc3 Library/util/sinus.o
 .debug_info    0x0009929b     0x1dd0 src/asf/avr32/drivers/adcifa/adcifa.o
 .debug_info    0x0009b06b     0x1200 src/asf/avr32/drivers/ast/ast.o
 .debug_info    0x0009c26b      0xed8 src/asf/avr32/drivers/dacifb/dacifb.o
 .debug_info    0x0009d143     0x1976 src/asf/avr32/drivers/eic/eic.o
 .debug_info    0x0009eab9     0x1e22 src/asf/avr32/drivers/flashc/flashc.o
 .debug_info    0x000a08db      0xf81 src/asf/avr32/drivers/gpio/gpio.o
 .debug_info    0x000a185c      0x820 src/asf/avr32/drivers/intc/intc.o
 .debug_info    0x000a207c      0xe09 src/asf/avr32/drivers/pdca/pdca.o
 .debug_info    0x000a2e85      0x9f8 src/asf/avr32/drivers/pevc/pevc.o
 .debug_info    0x000a387d     0x1026 src/asf/avr32/drivers/pm/pm_uc3c.o
 .debug_info    0x000a48a3      0x57c src/asf/avr32/drivers/pm/power_clocks_lib.o
 .debug_info    0x000a4e1f     0x2a0a src/asf/avr32/drivers/pwm/pwm4.o
 .debug_info    0x000a7829     0x1d23 src/asf/avr32/drivers/scif/scif_uc3c.o
 .debug_info    0x000a954c     0x130c src/asf/avr32/drivers/spi/spi.o
 .debug_info    0x000aa858     0x118d src/asf/avr32/drivers/tc/tc.o
 .debug_info    0x000ab9e5     0x1221 src/asf/avr32/drivers/twim/twim.o
 .debug_info    0x000acc06     0x325c src/asf/avr32/drivers/usart/usart.o
 .debug_info    0x000afe62     0xb704 src/asf/avr32/drivers/usbc/usbc_device.o
 .debug_info    0x000bb566      0x26f src/asf/avr32/services/delay/delay.o
 .debug_info    0x000bb7d5       0xa0 src/asf/common/boards/user_board/init.o
 .debug_info    0x000bb875     0x1473 src/asf/common/services/clock/uc3c/osc.o
 .debug_info    0x000bcce8     0x12e6 src/asf/common/services/clock/uc3c/pll.o
 .debug_info    0x000bdfce     0x25cc src/asf/common/services/clock/uc3c/sysclk.o
 .debug_info    0x000c059a       0xf5 src/asf/common/services/sleepmgr/uc3/sleepmgr.o
 .debug_info    0x000c068f     0x131e src/asf/common/services/spi/uc3_spi/spi_master.o
 .debug_info    0x000c19ad      0xf1b src/asf/common/services/usb/class/cdc/device/udi_cdc.o
 .debug_info    0x000c28c8      0x75f src/asf/common/services/usb/class/cdc/device/udi_cdc_desc.o
 .debug_info    0x000c3027      0xe41 src/asf/common/services/usb/udc/udc.o
 .debug_info    0x000c3e68      0x146 src/asf/common/utils/stdio/read.o
 .debug_info    0x000c3fae      0x25f src/asf/common/utils/stdio/stdio_usb/stdio_usb.o
 .debug_info    0x000c420d      0x136 src/asf/common/utils/stdio/write.o
 .debug_info    0x000c4343     0x6199 src/boardsupport.o
 .debug_info    0x000ca4dc     0x5c59 src/main.o
 .debug_info    0x000d0135      0x176 d:/programmes/atmel/studio/7.0/toolchain/avr32/avr32-gnu-toolchain/bin/../lib/gcc/avr32/4.4.7/../../../../avr32/lib/ucr3fp\libm.a(lib_a-s_cos.o)
 .debug_info    0x000d02ab      0x1b4 d:/programmes/atmel/studio/7.0/toolchain/avr32/avr32-gnu-toolchain/bin/../lib/gcc/avr32/4.4.7/../../../../avr32/lib/ucr3fp\libm.a(lib_a-s_floor.o)
 .debug_info    0x000d045f      0x176 d:/programmes/atmel/studio/7.0/toolchain/avr32/avr32-gnu-toolchain/bin/../lib/gcc/avr32/4.4.7/../../../../avr32/lib/ucr3fp\libm.a(lib_a-s_sin.o)
 .debug_info    0x000d05d5      0x189 d:/programmes/atmel/studio/7.0/toolchain/avr32/avr32-gnu-toolchain/bin/../lib/gcc/avr32/4.4.7/../../../../avr32/lib/ucr3fp\libm.a(lib_a-w_asin.o)
 .debug_info    0x000d075e       0xbf d:/programmes/atmel/studio/7.0/toolchain/avr32/avr32-gnu-toolchain/bin/../lib/gcc/avr32/4.4.7/../../../../avr32/lib/ucr3fp\libm.a(lib_a-w_atan2.o)
 .debug_info    0x000d081d      0x1af d:/programmes/atmel/studio/7.0/toolchain/avr32/avr32-gnu-toolchain/bin/../lib/gcc/avr32/4.4.7/../../../../avr32/lib/ucr3fp\libm.a(lib_a-w_fmod.o)
 .debug_info    0x000d09cc      0x1c8 d:/programmes/atmel/studio/7.0/toolchain/avr32/avr32-gnu-toolchain/bin/../lib/gcc/avr32/4.4.7/../../../../avr32/lib/ucr3fp\libm.a(lib_a-w_pow.o)
 .debug_info    0x000d0b94      0x189 d:/programmes/atmel/studio/7.0/toolchain/avr32/avr32-gnu-toolchain/bin/../lib/gcc/avr32/4.4.7/../../../../avr32/lib/ucr3fp\libm.a(lib_a-w_sqrt.o)
 .debug_info    0x000d0d1d      0x172 d:/programmes/atmel/studio/7.0/toolchain/avr32/avr32-gnu-toolchain/bin/../lib/gcc/avr32/4.4.7/../../../../avr32/lib/ucr3fp\libm.a(lib_a-wf_sqrt.o)
 .debug_info    0x000d0e8f      0x308 d:/programmes/atmel/studio/7.0/toolchain/avr32/avr32-gnu-toolchain/bin/../lib/gcc/avr32/4.4.7/../../../../avr32/lib/ucr3fp\libm.a(lib_a-e_asin.o)
 .debug_info    0x000d1197      0x289 d:/programmes/atmel/studio/7.0/toolchain/avr32/avr32-gnu-toolchain/bin/../lib/gcc/avr32/4.4.7/../../../../avr32/lib/ucr3fp\libm.a(lib_a-e_atan2.o)
 .debug_info    0x000d1420      0x268 d:/programmes/atmel/studio/7.0/toolchain/avr32/avr32-gnu-toolchain/bin/../lib/gcc/avr32/4.4.7/../../../../avr32/lib/ucr3fp\libm.a(lib_a-e_fmod.o)
 .debug_info    0x000d1688      0x6b9 d:/programmes/atmel/studio/7.0/toolchain/avr32/avr32-gnu-toolchain/bin/../lib/gcc/avr32/4.4.7/../../../../avr32/lib/ucr3fp\libm.a(lib_a-e_pow.o)
 .debug_info    0x000d1d41      0x356 d:/programmes/atmel/studio/7.0/toolchain/avr32/avr32-gnu-toolchain/bin/../lib/gcc/avr32/4.4.7/../../../../avr32/lib/ucr3fp\libm.a(lib_a-e_rem_pio2.o)
 .debug_info    0x000d2097      0x229 d:/programmes/atmel/studio/7.0/toolchain/avr32/avr32-gnu-toolchain/bin/../lib/gcc/avr32/4.4.7/../../../../avr32/lib/ucr3fp\libm.a(lib_a-e_sqrt.o)
 .debug_info    0x000d22c0      0x169 d:/programmes/atmel/studio/7.0/toolchain/avr32/avr32-gnu-toolchain/bin/../lib/gcc/avr32/4.4.7/../../../../avr32/lib/ucr3fp\libm.a(lib_a-ef_sqrt.o)
 .debug_info    0x000d2429      0x23e d:/programmes/atmel/studio/7.0/toolchain/avr32/avr32-gnu-toolchain/bin/../lib/gcc/avr32/4.4.7/../../../../avr32/lib/ucr3fp\libm.a(lib_a-k_cos.o)
 .debug_info    0x000d2667      0x2d9 d:/programmes/atmel/studio/7.0/toolchain/avr32/avr32-gnu-toolchain/bin/../lib/gcc/avr32/4.4.7/../../../../avr32/lib/ucr3fp\libm.a(lib_a-k_rem_pio2.o)
 .debug_info    0x000d2940      0x18c d:/programmes/atmel/studio/7.0/toolchain/avr32/avr32-gnu-toolchain/bin/../lib/gcc/avr32/4.4.7/../../../../avr32/lib/ucr3fp\libm.a(lib_a-k_sin.o)
 .debug_info    0x000d2acc      0x28b d:/programmes/atmel/studio/7.0/toolchain/avr32/avr32-gnu-toolchain/bin/../lib/gcc/avr32/4.4.7/../../../../avr32/lib/ucr3fp\libm.a(lib_a-s_atan.o)
 .debug_info    0x000d2d57      0x138 d:/programmes/atmel/studio/7.0/toolchain/avr32/avr32-gnu-toolchain/bin/../lib/gcc/avr32/4.4.7/../../../../avr32/lib/ucr3fp\libm.a(lib_a-s_fabs.o)
 .debug_info    0x000d2e8f      0x13b d:/programmes/atmel/studio/7.0/toolchain/avr32/avr32-gnu-toolchain/bin/../lib/gcc/avr32/4.4.7/../../../../avr32/lib/ucr3fp\libm.a(lib_a-s_finite.o)
 .debug_info    0x000d2fca      0x14c d:/programmes/atmel/studio/7.0/toolchain/avr32/avr32-gnu-toolchain/bin/../lib/gcc/avr32/4.4.7/../../../../avr32/lib/ucr3fp\libm.a(lib_a-s_isnand.o)
 .debug_info    0x000d3116       0xc0 d:/programmes/atmel/studio/7.0/toolchain/avr32/avr32-gnu-toolchain/bin/../lib/gcc/avr32/4.4.7/../../../../avr32/lib/ucr3fp\libm.a(lib_a-s_lib_ver.o)
 .debug_info    0x000d31d6      0x132 d:/programmes/atmel/studio/7.0/toolchain/avr32/avr32-gnu-toolchain/bin/../lib/gcc/avr32/4.4.7/../../../../avr32/lib/ucr3fp\libm.a(lib_a-s_matherr.o)
 .debug_info    0x000d3308       0xc4 d:/programmes/atmel/studio/7.0/toolchain/avr32/avr32-gnu-toolchain/bin/../lib/gcc/avr32/4.4.7/../../../../avr32/lib/ucr3fp\libm.a(lib_a-s_nan.o)
 .debug_info    0x000d33cc      0x201 d:/programmes/atmel/studio/7.0/toolchain/avr32/avr32-gnu-toolchain/bin/../lib/gcc/avr32/4.4.7/../../../../avr32/lib/ucr3fp\libm.a(lib_a-s_rint.o)
 .debug_info    0x000d35cd      0x21b d:/programmes/atmel/studio/7.0/toolchain/avr32/avr32-gnu-toolchain/bin/../lib/gcc/avr32/4.4.7/../../../../avr32/lib/ucr3fp\libm.a(lib_a-s_scalbn.o)
 .debug_info    0x000d37e8      0x114 d:/programmes/atmel/studio/7.0/toolchain/avr32/avr32-gnu-toolchain/bin/../lib/gcc/avr32/4.4.7/../../../../avr32/lib/ucr3fp\libm.a(lib_a-sf_isnan.o)
 .debug_info    0x000d38fc      0x150 d:/programmes/atmel/studio/7.0/toolchain/avr32/avr32-gnu-toolchain/bin/../lib/gcc/avr32/4.4.7/../../../../avr32/lib/ucr3fp\libm.a(lib_a-s_copysign.o)
 .debug_info    0x000d3a4c       0xd8 d:/programmes/atmel/studio/7.0/toolchain/avr32/avr32-gnu-toolchain/bin/../lib/gcc/avr32/4.4.7/ucr3fp\libgcc.a(_floatdidf.o)
 .debug_info    0x000d3b24      0x5b4 d:/programmes/atmel/studio/7.0/toolchain/avr32/avr32-gnu-toolchain/bin/../lib/gcc/avr32/4.4.7/ucr3fp\libgcc.a(_divdi3.o)
 .debug_info    0x000d40d8      0x551 d:/programmes/atmel/studio/7.0/toolchain/avr32/avr32-gnu-toolchain/bin/../lib/gcc/avr32/4.4.7/ucr3fp\libgcc.a(_moddi3.o)
 .debug_info    0x000d4629      0x57b d:/programmes/atmel/studio/7.0/toolchain/avr32/avr32-gnu-toolchain/bin/../lib/gcc/avr32/4.4.7/ucr3fp\libgcc.a(_udivdi3.o)
 .debug_info    0x000d4ba4      0x52b d:/programmes/atmel/studio/7.0/toolchain/avr32/avr32-gnu-toolchain/bin/../lib/gcc/avr32/4.4.7/ucr3fp\libgcc.a(_umoddi3.o)
 .debug_info    0x000d50cf      0x8a6 d:/programmes/atmel/studio/7.0/toolchain/avr32/avr32-gnu-toolchain/bin/../lib/gcc/avr32/4.4.7/../../../../avr32/lib/ucr3fp\libc.a(lib_a-errno.o)
 .debug_info    0x000d5975      0x960 d:/programmes/atmel/studio/7.0/toolchain/avr32/avr32-gnu-toolchain/bin/../lib/gcc/avr32/4.4.7/../../../../avr32/lib/ucr3fp\libc.a(lib_a-impure.o)
 .debug_info    0x000d62d5      0x8ea d:/programmes/atmel/studio/7.0/toolchain/avr32/avr32-gnu-toolchain/bin/../lib/gcc/avr32/4.4.7/../../../../avr32/lib/ucr3fp\libc.a(lib_a-malloc.o)
 .debug_info    0x000d6bbf      0xc4e d:/programmes/atmel/studio/7.0/toolchain/avr32/avr32-gnu-toolchain/bin/../lib/gcc/avr32/4.4.7/../../../../avr32/lib/ucr3fp\libc.a(lib_a-mallocr.o)
 .debug_info    0x000d780d       0xcd d:/programmes/atmel/studio/7.0/toolchain/avr32/avr32-gnu-toolchain/bin/../lib/gcc/avr32/4.4.7/../../../../avr32/lib/ucr3fp\libc.a(lib_a-memset.o)
 .debug_info    0x000d78da      0x8cf d:/programmes/atmel/studio/7.0/toolchain/avr32/avr32-gnu-toolchain/bin/../lib/gcc/avr32/4.4.7/../../../../avr32/lib/ucr3fp\libc.a(lib_a-mlock.o)
 .debug_info    0x000d81a9      0x91a d:/programmes/atmel/studio/7.0/toolchain/avr32/avr32-gnu-toolchain/bin/../lib/gcc/avr32/4.4.7/../../../../avr32/lib/ucr3fp\libc.a(lib_a-rand.o)
 .debug_info    0x000d8ac3      0x8de d:/programmes/atmel/studio/7.0/toolchain/avr32/avr32-gnu-toolchain/bin/../lib/gcc/avr32/4.4.7/../../../../avr32/lib/ucr3fp\libc.a(lib_a-sbrkr.o)
 .debug_info    0x000d93a1      0x9bd d:/programmes/atmel/studio/7.0/toolchain/avr32/avr32-gnu-toolchain/bin/../lib/gcc/avr32/4.4.7/../../../../avr32/lib/ucr3fp\libc.a(lib_a-snprintf.o)
 .debug_info    0x000d9d5e       0xc2 d:/programmes/atmel/studio/7.0/toolchain/avr32/avr32-gnu-toolchain/bin/../lib/gcc/avr32/4.4.7/../../../../avr32/lib/ucr3fp\libc.a(lib_a-strcpy.o)
 .debug_info    0x000d9e20       0xbe d:/programmes/atmel/studio/7.0/toolchain/avr32/avr32-gnu-toolchain/bin/../lib/gcc/avr32/4.4.7/../../../../avr32/lib/ucr3fp\libc.a(lib_a-strlen.o)
 .debug_info    0x000d9ede      0x93a d:/programmes/atmel/studio/7.0/toolchain/avr32/avr32-gnu-toolchain/bin/../lib/gcc/avr32/4.4.7/../../../../avr32/lib/ucr3fp\libc.a(lib_a-syscalls.o)
 .debug_info    0x000da818     0x15e8 d:/programmes/atmel/studio/7.0/toolchain/avr32/avr32-gnu-toolchain/bin/../lib/gcc/avr32/4.4.7/../../../../avr32/lib/ucr3fp\libc.a(lib_a-vfprintf.o)
 .debug_info    0x000dbe00      0x982 d:/programmes/atmel/studio/7.0/toolchain/avr32/avr32-gnu-toolchain/bin/../lib/gcc/avr32/4.4.7/../../../../avr32/lib/ucr3fp\libc.a(lib_a-wsetup.o)
 .debug_info    0x000dc782      0xcf7 d:/programmes/atmel/studio/7.0/toolchain/avr32/avr32-gnu-toolchain/bin/../lib/gcc/avr32/4.4.7/../../../../avr32/lib/ucr3fp\libc.a(lib_a-dtoa.o)
 .debug_info    0x000dd479      0xa22 d:/programmes/atmel/studio/7.0/toolchain/avr32/avr32-gnu-toolchain/bin/../lib/gcc/avr32/4.4.7/../../../../avr32/lib/ucr3fp\libc.a(lib_a-fflush.o)
 .debug_info    0x000dde9b      0xc2a d:/programmes/atmel/studio/7.0/toolchain/avr32/avr32-gnu-toolchain/bin/../lib/gcc/avr32/4.4.7/../../../../avr32/lib/ucr3fp\libc.a(lib_a-findfp.o)
 .debug_info    0x000deac5      0xb3d d:/programmes/atmel/studio/7.0/toolchain/avr32/avr32-gnu-toolchain/bin/../lib/gcc/avr32/4.4.7/../../../../avr32/lib/ucr3fp\libc.a(lib_a-freer.o)
 .debug_info    0x000df602      0x9fc d:/programmes/atmel/studio/7.0/toolchain/avr32/avr32-gnu-toolchain/bin/../lib/gcc/avr32/4.4.7/../../../../avr32/lib/ucr3fp\libc.a(lib_a-fvwrite.o)
 .debug_info    0x000dfffe      0xa61 d:/programmes/atmel/studio/7.0/toolchain/avr32/avr32-gnu-toolchain/bin/../lib/gcc/avr32/4.4.7/../../../../avr32/lib/ucr3fp\libc.a(lib_a-fwalk.o)
 .debug_info    0x000e0a5f      0xb24 d:/programmes/atmel/studio/7.0/toolchain/avr32/avr32-gnu-toolchain/bin/../lib/gcc/avr32/4.4.7/../../../../avr32/lib/ucr3fp\libc.a(lib_a-locale.o)
 .debug_info    0x000e1583      0xa96 d:/programmes/atmel/studio/7.0/toolchain/avr32/avr32-gnu-toolchain/bin/../lib/gcc/avr32/4.4.7/../../../../avr32/lib/ucr3fp\libc.a(lib_a-makebuf.o)
 .debug_info    0x000e2019       0xe7 d:/programmes/atmel/studio/7.0/toolchain/avr32/avr32-gnu-toolchain/bin/../lib/gcc/avr32/4.4.7/../../../../avr32/lib/ucr3fp\libc.a(lib_a-memchr.o)
 .debug_info    0x000e2100      0x102 d:/programmes/atmel/studio/7.0/toolchain/avr32/avr32-gnu-toolchain/bin/../lib/gcc/avr32/4.4.7/../../../../avr32/lib/ucr3fp\libc.a(lib_a-memmove.o)
 .debug_info    0x000e2202     0x149a d:/programmes/atmel/studio/7.0/toolchain/avr32/avr32-gnu-toolchain/bin/../lib/gcc/avr32/4.4.7/../../../../avr32/lib/ucr3fp\libc.a(lib_a-mprec.o)
 .debug_info    0x000e369c      0xb17 d:/programmes/atmel/studio/7.0/toolchain/avr32/avr32-gnu-toolchain/bin/../lib/gcc/avr32/4.4.7/../../../../avr32/lib/ucr3fp\libc.a(lib_a-reallocr.o)
 .debug_info    0x000e41b3      0x973 d:/programmes/atmel/studio/7.0/toolchain/avr32/avr32-gnu-toolchain/bin/../lib/gcc/avr32/4.4.7/../../../../avr32/lib/ucr3fp\libc.a(lib_a-reent.o)
 .debug_info    0x000e4b26      0x14d d:/programmes/atmel/studio/7.0/toolchain/avr32/avr32-gnu-toolchain/bin/../lib/gcc/avr32/4.4.7/../../../../avr32/lib/ucr3fp\libc.a(lib_a-s_isinfd.o)
 .debug_info    0x000e4c73      0xa28 d:/programmes/atmel/studio/7.0/toolchain/avr32/avr32-gnu-toolchain/bin/../lib/gcc/avr32/4.4.7/../../../../avr32/lib/ucr3fp\libc.a(lib_a-stdio.o)
 .debug_info    0x000e569b      0x90d d:/programmes/atmel/studio/7.0/toolchain/avr32/avr32-gnu-toolchain/bin/../lib/gcc/avr32/4.4.7/../../../../avr32/lib/ucr3fp\libc.a(lib_a-writer.o)
 .debug_info    0x000e5fa8      0x997 d:/programmes/atmel/studio/7.0/toolchain/avr32/avr32-gnu-toolchain/bin/../lib/gcc/avr32/4.4.7/../../../../avr32/lib/ucr3fp\libc.a(lib_a-callocr.o)
 .debug_info    0x000e693f      0x8d2 d:/programmes/atmel/studio/7.0/toolchain/avr32/avr32-gnu-toolchain/bin/../lib/gcc/avr32/4.4.7/../../../../avr32/lib/ucr3fp\libc.a(lib_a-closer.o)
 .debug_info    0x000e7211      0x9bc d:/programmes/atmel/studio/7.0/toolchain/avr32/avr32-gnu-toolchain/bin/../lib/gcc/avr32/4.4.7/../../../../avr32/lib/ucr3fp\libc.a(lib_a-fclose.o)
 .debug_info    0x000e7bcd      0xa76 d:/programmes/atmel/studio/7.0/toolchain/avr32/avr32-gnu-toolchain/bin/../lib/gcc/avr32/4.4.7/../../../../avr32/lib/ucr3fp\libc.a(lib_a-fstatr.o)
 .debug_info    0x000e8643      0x8fb d:/programmes/atmel/studio/7.0/toolchain/avr32/avr32-gnu-toolchain/bin/../lib/gcc/avr32/4.4.7/../../../../avr32/lib/ucr3fp\libc.a(lib_a-lseekr.o)
 .debug_info    0x000e8f3e      0x906 d:/programmes/atmel/studio/7.0/toolchain/avr32/avr32-gnu-toolchain/bin/../lib/gcc/avr32/4.4.7/../../../../avr32/lib/ucr3fp\libc.a(lib_a-readr.o)

.debug_abbrev   0x00000000    0x1584a
 *(.debug_abbrev)
 .debug_abbrev  0x00000000      0x1ef Library/communication/console.o
 .debug_abbrev  0x000001ef      0x3ee Library/communication/data_logging.o
 .debug_abbrev  0x000005dd      0x28f Library/communication/data_logging_telemetry.o
 .debug_abbrev  0x0000086c      0x36a Library/communication/hud_telemetry.o
 .debug_abbrev  0x00000bd6      0x2f8 Library/communication/mavlink_communication.o
 .debug_abbrev  0x00000ece      0x325 Library/communication/mavlink_message_handler.o
 .debug_abbrev  0x000011f3      0x516 Library/communication/mavlink_waypoint_handler.o
 .debug_abbrev  0x00001709      0x32c Library/communication/remote.o
 .debug_abbrev  0x00001a35      0x35d Library/communication/remote_telemetry.o
 .debug_abbrev  0x00001d92      0x145 Library/communication/state.o
 .debug_abbrev  0x00001ed7      0x26a Library/communication/state_machine.o
 .debug_abbrev  0x00002141      0x2ce Library/communication/state_telemetry.o
 .debug_abbrev  0x0000240f      0x1b1 Library/control/adaptive_parameter.o
 .debug_abbrev  0x000025c0       0xfc Library/control/altitude_controller.o
 .debug_abbrev  0x000026bc      0x16c Library/control/attitude_controller.o
 .debug_abbrev  0x00002828       0xd6 Library/control/attitude_controller_p2.o
 .debug_abbrev  0x000028fe      0x172 Library/control/attitude_error_estimator.o
 .debug_abbrev  0x00002a70      0x1ab Library/control/joystick_parsing.o
 .debug_abbrev  0x00002c1b      0x2f1 Library/control/joystick_parsing_telemetry.o
 .debug_abbrev  0x00002f0c      0x1e3 Library/control/pid_controller.o
 .debug_abbrev  0x000030ef      0x120 Library/control/servos_mix_quadcopter_cross.o
 .debug_abbrev  0x0000320f      0x120 Library/control/servos_mix_quadcopter_diag.o
 .debug_abbrev  0x0000332f      0x408 Library/control/stabilisation_copter.o
 .debug_abbrev  0x00003737      0x20d Library/control/stabilisation_telemetry.o
 .debug_abbrev  0x00003944      0x3c1 Library/control/vector_field_waypoint.o
 .debug_abbrev  0x00003d05      0x33e Library/control/velocity_controller_copter.o
 .debug_abbrev  0x00004043      0x204 Library/hal/analog_monitor_telemetry.o
 .debug_abbrev  0x00004247      0x147 Library/hal/analog_monitor.o
 .debug_abbrev  0x0000438e      0x20e Library/hal/bmp085_telemetry.o
 .debug_abbrev  0x0000459c      0x140 Library/hal/fat_fs/diskio.o
 .debug_abbrev  0x000046dc      0x2b1 Library/hal/fat_fs/ff.o
 .debug_abbrev  0x0000498d       0xae Library/hal/fat_fs/option/ccsbcs.o
 .debug_abbrev  0x00004a3b       0x84 Library/hal/fat_fs/option/syscall.o
 .debug_abbrev  0x00004abf        0x1 Library/hal/fat_fs/option/unicode.o
 .debug_abbrev  0x00004ac0      0x376 Library/hal/gps_ublox.o
 .debug_abbrev  0x00004e36      0x246 Library/hal/gps_ublox_telemetry.o
 .debug_abbrev  0x0000507c      0x164 Library/hal/hmc5883l.o
 .debug_abbrev  0x000051e0      0x22f Library/hal/i2c_driver_int.o
 .debug_abbrev  0x0000540f      0x1ff Library/hal/lsm330dlc.o
 .debug_abbrev  0x0000560e      0x154 Library/hal/piezo_speaker.o
 .debug_abbrev  0x00005762      0x1d2 Library/hal/pwm_servos.o
 .debug_abbrev  0x00005934      0x3ae Library/hal/sd_spi.o
 .debug_abbrev  0x00005ce2       0xf8 Library/hal/servos.o
 .debug_abbrev  0x00005dda      0x1ff Library/hal/servos_telemetry.o
 .debug_abbrev  0x00005fd9      0x174 Library/hal/sonar_i2cxl.o
 .debug_abbrev  0x0000614d      0x20e Library/hal/sonar_telemetry.o
 .debug_abbrev  0x0000635b      0x358 Library/hal/spektrum_satellite.o
 .debug_abbrev  0x000066b3      0x153 Library/hal/time_keeper.o
 .debug_abbrev  0x00006806      0x123 Library/hal/usb_int.o
 .debug_abbrev  0x00006929      0x1bf Library/hal/xbee.o
 .debug_abbrev  0x00006ae8      0x218 Library/runtime/scheduler_telemetry.o
 .debug_abbrev  0x00006d00       0xbb Library/sensing/ahrs.o
 .debug_abbrev  0x00006dbb      0x223 Library/sensing/ahrs_telemetry.o
 .debug_abbrev  0x00006fde       0xfa Library/sensing/altitude_estimation.o
 .debug_abbrev  0x000070d8      0x2b9 Library/sensing/imu_telemetry.o
 .debug_abbrev  0x00007391      0x3d0 Library/sensing/position_estimation.o
 .debug_abbrev  0x00007761      0x388 Library/sensing/position_estimation_telemetry.o
 .debug_abbrev  0x00007ae9      0x26b Library/sensing/qfilter.o
 .debug_abbrev  0x00007d54      0x3aa Library/sensing/simulation_telemetry.o
 .debug_abbrev  0x000080fe      0x129 Library/util/linear_algebra.o
 .debug_abbrev  0x00008227      0x143 Library/util/matrixlib_float.o
 .debug_abbrev  0x0000836a      0x16c Library/util/quick_trig.o
 .debug_abbrev  0x000084d6      0x2e4 src/central_data.o
 .debug_abbrev  0x000087ba      0x2e3 src/mavlink_telemetry.o
 .debug_abbrev  0x00008a9d      0x2dc src/tasks.o
 .debug_abbrev  0x00008d79      0x27c Library/communication/mavlink_stream.o
 .debug_abbrev  0x00008ff5      0x3ac Library/communication/onboard_parameters.o
 .debug_abbrev  0x000093a1      0x4a0 Library/control/navigation.o
 .debug_abbrev  0x00009841       0xfb Library/control/stabilisation.o
 .debug_abbrev  0x0000993c      0x2f7 Library/hal/adc_int.o
 .debug_abbrev  0x00009c33      0x2d9 Library/hal/ads1274.o
 .debug_abbrev  0x00009f0c      0x2a0 Library/hal/bmp085.o
 .debug_abbrev  0x0000a1ac      0x209 Library/hal/dac_dma.o
 .debug_abbrev  0x0000a3b5      0x240 Library/hal/led.o
 .debug_abbrev  0x0000a5f5      0x2f1 Library/hal/spi_buffered.o
 .debug_abbrev  0x0000a8e6      0x244 Library/hal/uart_int.o
 .debug_abbrev  0x0000ab2a      0x1f6 Library/runtime/scheduler.o
 .debug_abbrev  0x0000ad20      0x1f0 Library/sensing/imu.o
 .debug_abbrev  0x0000af10      0x43d Library/sensing/simulation.o
 .debug_abbrev  0x0000b34d      0x12e Library/util/buffer.o
 .debug_abbrev  0x0000b47b      0x13b Library/util/coord_conventions.o
 .debug_abbrev  0x0000b5b6       0xfe Library/util/generator.o
 .debug_abbrev  0x0000b6b4      0x1b6 Library/util/print_util.o
 .debug_abbrev  0x0000b86a       0x70 Library/util/sinus.o
 .debug_abbrev  0x0000b8da      0x1f8 src/asf/avr32/drivers/adcifa/adcifa.o
 .debug_abbrev  0x0000bad2      0x225 src/asf/avr32/drivers/ast/ast.o
 .debug_abbrev  0x0000bcf7      0x25f src/asf/avr32/drivers/dacifb/dacifb.o
 .debug_abbrev  0x0000bf56      0x1fd src/asf/avr32/drivers/eic/eic.o
 .debug_abbrev  0x0000c153      0x2da src/asf/avr32/drivers/flashc/flashc.o
 .debug_abbrev  0x0000c42d      0x2cd src/asf/avr32/drivers/gpio/gpio.o
 .debug_abbrev  0x0000c6fa      0x1ca src/asf/avr32/drivers/intc/intc.o
 .debug_abbrev  0x0000c8c4      0x255 src/asf/avr32/drivers/pdca/pdca.o
 .debug_abbrev  0x0000cb19      0x1c2 src/asf/avr32/drivers/pevc/pevc.o
 .debug_abbrev  0x0000ccdb      0x1cc src/asf/avr32/drivers/pm/pm_uc3c.o
 .debug_abbrev  0x0000cea7      0x18b src/asf/avr32/drivers/pm/power_clocks_lib.o
 .debug_abbrev  0x0000d032      0x26a src/asf/avr32/drivers/pwm/pwm4.o
 .debug_abbrev  0x0000d29c      0x319 src/asf/avr32/drivers/scif/scif_uc3c.o
 .debug_abbrev  0x0000d5b5      0x247 src/asf/avr32/drivers/spi/spi.o
 .debug_abbrev  0x0000d7fc      0x24e src/asf/avr32/drivers/tc/tc.o
 .debug_abbrev  0x0000da4a      0x281 src/asf/avr32/drivers/twim/twim.o
 .debug_abbrev  0x0000dccb      0x290 src/asf/avr32/drivers/usart/usart.o
 .debug_abbrev  0x0000df5b      0x3f6 src/asf/avr32/drivers/usbc/usbc_device.o
 .debug_abbrev  0x0000e351      0x16e src/asf/avr32/services/delay/delay.o
 .debug_abbrev  0x0000e4bf       0x48 src/asf/common/boards/user_board/init.o
 .debug_abbrev  0x0000e507      0x1b5 src/asf/common/services/clock/uc3c/osc.o
 .debug_abbrev  0x0000e6bc      0x1dc src/asf/common/services/clock/uc3c/pll.o
 .debug_abbrev  0x0000e898      0x2d7 src/asf/common/services/clock/uc3c/sysclk.o
 .debug_abbrev  0x0000eb6f       0x7b src/asf/common/services/sleepmgr/uc3/sleepmgr.o
 .debug_abbrev  0x0000ebea      0x24a src/asf/common/services/spi/uc3_spi/spi_master.o
 .debug_abbrev  0x0000ee34      0x2fb src/asf/common/services/usb/class/cdc/device/udi_cdc.o
 .debug_abbrev  0x0000f12f       0xf9 src/asf/common/services/usb/class/cdc/device/udi_cdc_desc.o
 .debug_abbrev  0x0000f228      0x2fd src/asf/common/services/usb/udc/udc.o
 .debug_abbrev  0x0000f525       0xd6 src/asf/common/utils/stdio/read.o
 .debug_abbrev  0x0000f5fb      0x11d src/asf/common/utils/stdio/stdio_usb/stdio_usb.o
 .debug_abbrev  0x0000f718       0xb1 src/asf/common/utils/stdio/write.o
 .debug_abbrev  0x0000f7c9      0x334 src/boardsupport.o
 .debug_abbrev  0x0000fafd      0x23a src/main.o
 .debug_abbrev  0x0000fd37       0xfe d:/programmes/atmel/studio/7.0/toolchain/avr32/avr32-gnu-toolchain/bin/../lib/gcc/avr32/4.4.7/../../../../avr32/lib/ucr3fp\libm.a(lib_a-s_cos.o)
 .debug_abbrev  0x0000fe35      0x10f d:/programmes/atmel/studio/7.0/toolchain/avr32/avr32-gnu-toolchain/bin/../lib/gcc/avr32/4.4.7/../../../../avr32/lib/ucr3fp\libm.a(lib_a-s_floor.o)
 .debug_abbrev  0x0000ff44       0xfe d:/programmes/atmel/studio/7.0/toolchain/avr32/avr32-gnu-toolchain/bin/../lib/gcc/avr32/4.4.7/../../../../avr32/lib/ucr3fp\libm.a(lib_a-s_sin.o)
 .debug_abbrev  0x00010042       0xee d:/programmes/atmel/studio/7.0/toolchain/avr32/avr32-gnu-toolchain/bin/../lib/gcc/avr32/4.4.7/../../../../avr32/lib/ucr3fp\libm.a(lib_a-w_asin.o)
 .debug_abbrev  0x00010130       0x59 d:/programmes/atmel/studio/7.0/toolchain/avr32/avr32-gnu-toolchain/bin/../lib/gcc/avr32/4.4.7/../../../../avr32/lib/ucr3fp\libm.a(lib_a-w_atan2.o)
 .debug_abbrev  0x00010189       0xf9 d:/programmes/atmel/studio/7.0/toolchain/avr32/avr32-gnu-toolchain/bin/../lib/gcc/avr32/4.4.7/../../../../avr32/lib/ucr3fp\libm.a(lib_a-w_fmod.o)
 .debug_abbrev  0x00010282       0xf9 d:/programmes/atmel/studio/7.0/toolchain/avr32/avr32-gnu-toolchain/bin/../lib/gcc/avr32/4.4.7/../../../../avr32/lib/ucr3fp\libm.a(lib_a-w_pow.o)
 .debug_abbrev  0x0001037b       0xee d:/programmes/atmel/studio/7.0/toolchain/avr32/avr32-gnu-toolchain/bin/../lib/gcc/avr32/4.4.7/../../../../avr32/lib/ucr3fp\libm.a(lib_a-w_sqrt.o)
 .debug_abbrev  0x00010469       0xc9 d:/programmes/atmel/studio/7.0/toolchain/avr32/avr32-gnu-toolchain/bin/../lib/gcc/avr32/4.4.7/../../../../avr32/lib/ucr3fp\libm.a(lib_a-wf_sqrt.o)
 .debug_abbrev  0x00010532      0x11c d:/programmes/atmel/studio/7.0/toolchain/avr32/avr32-gnu-toolchain/bin/../lib/gcc/avr32/4.4.7/../../../../avr32/lib/ucr3fp\libm.a(lib_a-e_asin.o)
 .debug_abbrev  0x0001064e      0x12b d:/programmes/atmel/studio/7.0/toolchain/avr32/avr32-gnu-toolchain/bin/../lib/gcc/avr32/4.4.7/../../../../avr32/lib/ucr3fp\libm.a(lib_a-e_atan2.o)
 .debug_abbrev  0x00010779      0x121 d:/programmes/atmel/studio/7.0/toolchain/avr32/avr32-gnu-toolchain/bin/../lib/gcc/avr32/4.4.7/../../../../avr32/lib/ucr3fp\libm.a(lib_a-e_fmod.o)
 .debug_abbrev  0x0001089a      0x166 d:/programmes/atmel/studio/7.0/toolchain/avr32/avr32-gnu-toolchain/bin/../lib/gcc/avr32/4.4.7/../../../../avr32/lib/ucr3fp\libm.a(lib_a-e_pow.o)
 .debug_abbrev  0x00010a00      0x14f d:/programmes/atmel/studio/7.0/toolchain/avr32/avr32-gnu-toolchain/bin/../lib/gcc/avr32/4.4.7/../../../../avr32/lib/ucr3fp\libm.a(lib_a-e_rem_pio2.o)
 .debug_abbrev  0x00010b4f      0x138 d:/programmes/atmel/studio/7.0/toolchain/avr32/avr32-gnu-toolchain/bin/../lib/gcc/avr32/4.4.7/../../../../avr32/lib/ucr3fp\libm.a(lib_a-e_sqrt.o)
 .debug_abbrev  0x00010c87       0xc5 d:/programmes/atmel/studio/7.0/toolchain/avr32/avr32-gnu-toolchain/bin/../lib/gcc/avr32/4.4.7/../../../../avr32/lib/ucr3fp\libm.a(lib_a-ef_sqrt.o)
 .debug_abbrev  0x00010d4c      0x11e d:/programmes/atmel/studio/7.0/toolchain/avr32/avr32-gnu-toolchain/bin/../lib/gcc/avr32/4.4.7/../../../../avr32/lib/ucr3fp\libm.a(lib_a-k_cos.o)
 .debug_abbrev  0x00010e6a      0x11a d:/programmes/atmel/studio/7.0/toolchain/avr32/avr32-gnu-toolchain/bin/../lib/gcc/avr32/4.4.7/../../../../avr32/lib/ucr3fp\libm.a(lib_a-k_rem_pio2.o)
 .debug_abbrev  0x00010f84       0x9a d:/programmes/atmel/studio/7.0/toolchain/avr32/avr32-gnu-toolchain/bin/../lib/gcc/avr32/4.4.7/../../../../avr32/lib/ucr3fp\libm.a(lib_a-k_sin.o)
 .debug_abbrev  0x0001101e      0x130 d:/programmes/atmel/studio/7.0/toolchain/avr32/avr32-gnu-toolchain/bin/../lib/gcc/avr32/4.4.7/../../../../avr32/lib/ucr3fp\libm.a(lib_a-s_atan.o)
 .debug_abbrev  0x0001114e       0xce d:/programmes/atmel/studio/7.0/toolchain/avr32/avr32-gnu-toolchain/bin/../lib/gcc/avr32/4.4.7/../../../../avr32/lib/ucr3fp\libm.a(lib_a-s_fabs.o)
 .debug_abbrev  0x0001121c       0xcc d:/programmes/atmel/studio/7.0/toolchain/avr32/avr32-gnu-toolchain/bin/../lib/gcc/avr32/4.4.7/../../../../avr32/lib/ucr3fp\libm.a(lib_a-s_finite.o)
 .debug_abbrev  0x000112e8       0xce d:/programmes/atmel/studio/7.0/toolchain/avr32/avr32-gnu-toolchain/bin/../lib/gcc/avr32/4.4.7/../../../../avr32/lib/ucr3fp\libm.a(lib_a-s_isnand.o)
 .debug_abbrev  0x000113b6       0x5a d:/programmes/atmel/studio/7.0/toolchain/avr32/avr32-gnu-toolchain/bin/../lib/gcc/avr32/4.4.7/../../../../avr32/lib/ucr3fp\libm.a(lib_a-s_lib_ver.o)
 .debug_abbrev  0x00011410       0x9e d:/programmes/atmel/studio/7.0/toolchain/avr32/avr32-gnu-toolchain/bin/../lib/gcc/avr32/4.4.7/../../../../avr32/lib/ucr3fp\libm.a(lib_a-s_matherr.o)
 .debug_abbrev  0x000114ae       0x76 d:/programmes/atmel/studio/7.0/toolchain/avr32/avr32-gnu-toolchain/bin/../lib/gcc/avr32/4.4.7/../../../../avr32/lib/ucr3fp\libm.a(lib_a-s_nan.o)
 .debug_abbrev  0x00011524      0x119 d:/programmes/atmel/studio/7.0/toolchain/avr32/avr32-gnu-toolchain/bin/../lib/gcc/avr32/4.4.7/../../../../avr32/lib/ucr3fp\libm.a(lib_a-s_rint.o)
 .debug_abbrev  0x0001163d      0x118 d:/programmes/atmel/studio/7.0/toolchain/avr32/avr32-gnu-toolchain/bin/../lib/gcc/avr32/4.4.7/../../../../avr32/lib/ucr3fp\libm.a(lib_a-s_scalbn.o)
 .debug_abbrev  0x00011755       0xb0 d:/programmes/atmel/studio/7.0/toolchain/avr32/avr32-gnu-toolchain/bin/../lib/gcc/avr32/4.4.7/../../../../avr32/lib/ucr3fp\libm.a(lib_a-sf_isnan.o)
 .debug_abbrev  0x00011805       0xce d:/programmes/atmel/studio/7.0/toolchain/avr32/avr32-gnu-toolchain/bin/../lib/gcc/avr32/4.4.7/../../../../avr32/lib/ucr3fp\libm.a(lib_a-s_copysign.o)
 .debug_abbrev  0x000118d3       0x6a d:/programmes/atmel/studio/7.0/toolchain/avr32/avr32-gnu-toolchain/bin/../lib/gcc/avr32/4.4.7/ucr3fp\libgcc.a(_floatdidf.o)
 .debug_abbrev  0x0001193d      0x178 d:/programmes/atmel/studio/7.0/toolchain/avr32/avr32-gnu-toolchain/bin/../lib/gcc/avr32/4.4.7/ucr3fp\libgcc.a(_divdi3.o)
 .debug_abbrev  0x00011ab5      0x178 d:/programmes/atmel/studio/7.0/toolchain/avr32/avr32-gnu-toolchain/bin/../lib/gcc/avr32/4.4.7/ucr3fp\libgcc.a(_moddi3.o)
 .debug_abbrev  0x00011c2d      0x15a d:/programmes/atmel/studio/7.0/toolchain/avr32/avr32-gnu-toolchain/bin/../lib/gcc/avr32/4.4.7/ucr3fp\libgcc.a(_udivdi3.o)
 .debug_abbrev  0x00011d87      0x169 d:/programmes/atmel/studio/7.0/toolchain/avr32/avr32-gnu-toolchain/bin/../lib/gcc/avr32/4.4.7/ucr3fp\libgcc.a(_umoddi3.o)
 .debug_abbrev  0x00011ef0      0x150 d:/programmes/atmel/studio/7.0/toolchain/avr32/avr32-gnu-toolchain/bin/../lib/gcc/avr32/4.4.7/../../../../avr32/lib/ucr3fp\libc.a(lib_a-errno.o)
 .debug_abbrev  0x00012040      0x160 d:/programmes/atmel/studio/7.0/toolchain/avr32/avr32-gnu-toolchain/bin/../lib/gcc/avr32/4.4.7/../../../../avr32/lib/ucr3fp\libc.a(lib_a-impure.o)
 .debug_abbrev  0x000121a0      0x178 d:/programmes/atmel/studio/7.0/toolchain/avr32/avr32-gnu-toolchain/bin/../lib/gcc/avr32/4.4.7/../../../../avr32/lib/ucr3fp\libc.a(lib_a-malloc.o)
 .debug_abbrev  0x00012318      0x205 d:/programmes/atmel/studio/7.0/toolchain/avr32/avr32-gnu-toolchain/bin/../lib/gcc/avr32/4.4.7/../../../../avr32/lib/ucr3fp\libc.a(lib_a-mallocr.o)
 .debug_abbrev  0x0001251d       0x85 d:/programmes/atmel/studio/7.0/toolchain/avr32/avr32-gnu-toolchain/bin/../lib/gcc/avr32/4.4.7/../../../../avr32/lib/ucr3fp\libc.a(lib_a-memset.o)
 .debug_abbrev  0x000125a2      0x15b d:/programmes/atmel/studio/7.0/toolchain/avr32/avr32-gnu-toolchain/bin/../lib/gcc/avr32/4.4.7/../../../../avr32/lib/ucr3fp\libc.a(lib_a-mlock.o)
 .debug_abbrev  0x000126fd      0x1b3 d:/programmes/atmel/studio/7.0/toolchain/avr32/avr32-gnu-toolchain/bin/../lib/gcc/avr32/4.4.7/../../../../avr32/lib/ucr3fp\libc.a(lib_a-rand.o)
 .debug_abbrev  0x000128b0      0x17f d:/programmes/atmel/studio/7.0/toolchain/avr32/avr32-gnu-toolchain/bin/../lib/gcc/avr32/4.4.7/../../../../avr32/lib/ucr3fp\libc.a(lib_a-sbrkr.o)
 .debug_abbrev  0x00012a2f      0x1a9 d:/programmes/atmel/studio/7.0/toolchain/avr32/avr32-gnu-toolchain/bin/../lib/gcc/avr32/4.4.7/../../../../avr32/lib/ucr3fp\libc.a(lib_a-snprintf.o)
 .debug_abbrev  0x00012bd8       0x76 d:/programmes/atmel/studio/7.0/toolchain/avr32/avr32-gnu-toolchain/bin/../lib/gcc/avr32/4.4.7/../../../../avr32/lib/ucr3fp\libc.a(lib_a-strcpy.o)
 .debug_abbrev  0x00012c4e       0x83 d:/programmes/atmel/studio/7.0/toolchain/avr32/avr32-gnu-toolchain/bin/../lib/gcc/avr32/4.4.7/../../../../avr32/lib/ucr3fp\libc.a(lib_a-strlen.o)
 .debug_abbrev  0x00012cd1      0x19a d:/programmes/atmel/studio/7.0/toolchain/avr32/avr32-gnu-toolchain/bin/../lib/gcc/avr32/4.4.7/../../../../avr32/lib/ucr3fp\libc.a(lib_a-syscalls.o)
 .debug_abbrev  0x00012e6b      0x3dd d:/programmes/atmel/studio/7.0/toolchain/avr32/avr32-gnu-toolchain/bin/../lib/gcc/avr32/4.4.7/../../../../avr32/lib/ucr3fp\libc.a(lib_a-vfprintf.o)
 .debug_abbrev  0x00013248      0x16a d:/programmes/atmel/studio/7.0/toolchain/avr32/avr32-gnu-toolchain/bin/../lib/gcc/avr32/4.4.7/../../../../avr32/lib/ucr3fp\libc.a(lib_a-wsetup.o)
 .debug_abbrev  0x000133b2      0x251 d:/programmes/atmel/studio/7.0/toolchain/avr32/avr32-gnu-toolchain/bin/../lib/gcc/avr32/4.4.7/../../../../avr32/lib/ucr3fp\libc.a(lib_a-dtoa.o)
 .debug_abbrev  0x00013603      0x1c6 d:/programmes/atmel/studio/7.0/toolchain/avr32/avr32-gnu-toolchain/bin/../lib/gcc/avr32/4.4.7/../../../../avr32/lib/ucr3fp\libc.a(lib_a-fflush.o)
 .debug_abbrev  0x000137c9      0x28c d:/programmes/atmel/studio/7.0/toolchain/avr32/avr32-gnu-toolchain/bin/../lib/gcc/avr32/4.4.7/../../../../avr32/lib/ucr3fp\libc.a(lib_a-findfp.o)
 .debug_abbrev  0x00013a55      0x1d9 d:/programmes/atmel/studio/7.0/toolchain/avr32/avr32-gnu-toolchain/bin/../lib/gcc/avr32/4.4.7/../../../../avr32/lib/ucr3fp\libc.a(lib_a-freer.o)
 .debug_abbrev  0x00013c2e      0x1b4 d:/programmes/atmel/studio/7.0/toolchain/avr32/avr32-gnu-toolchain/bin/../lib/gcc/avr32/4.4.7/../../../../avr32/lib/ucr3fp\libc.a(lib_a-fvwrite.o)
 .debug_abbrev  0x00013de2      0x1df d:/programmes/atmel/studio/7.0/toolchain/avr32/avr32-gnu-toolchain/bin/../lib/gcc/avr32/4.4.7/../../../../avr32/lib/ucr3fp\libc.a(lib_a-fwalk.o)
 .debug_abbrev  0x00013fc1      0x210 d:/programmes/atmel/studio/7.0/toolchain/avr32/avr32-gnu-toolchain/bin/../lib/gcc/avr32/4.4.7/../../../../avr32/lib/ucr3fp\libc.a(lib_a-locale.o)
 .debug_abbrev  0x000141d1      0x17b d:/programmes/atmel/studio/7.0/toolchain/avr32/avr32-gnu-toolchain/bin/../lib/gcc/avr32/4.4.7/../../../../avr32/lib/ucr3fp\libc.a(lib_a-makebuf.o)
 .debug_abbrev  0x0001434c       0xb1 d:/programmes/atmel/studio/7.0/toolchain/avr32/avr32-gnu-toolchain/bin/../lib/gcc/avr32/4.4.7/../../../../avr32/lib/ucr3fp\libc.a(lib_a-memchr.o)
 .debug_abbrev  0x000143fd       0xa2 d:/programmes/atmel/studio/7.0/toolchain/avr32/avr32-gnu-toolchain/bin/../lib/gcc/avr32/4.4.7/../../../../avr32/lib/ucr3fp\libc.a(lib_a-memmove.o)
 .debug_abbrev  0x0001449f      0x30e d:/programmes/atmel/studio/7.0/toolchain/avr32/avr32-gnu-toolchain/bin/../lib/gcc/avr32/4.4.7/../../../../avr32/lib/ucr3fp\libc.a(lib_a-mprec.o)
 .debug_abbrev  0x000147ad      0x1c1 d:/programmes/atmel/studio/7.0/toolchain/avr32/avr32-gnu-toolchain/bin/../lib/gcc/avr32/4.4.7/../../../../avr32/lib/ucr3fp\libc.a(lib_a-reallocr.o)
 .debug_abbrev  0x0001496e      0x1e6 d:/programmes/atmel/studio/7.0/toolchain/avr32/avr32-gnu-toolchain/bin/../lib/gcc/avr32/4.4.7/../../../../avr32/lib/ucr3fp\libc.a(lib_a-reent.o)
 .debug_abbrev  0x00014b54       0xdd d:/programmes/atmel/studio/7.0/toolchain/avr32/avr32-gnu-toolchain/bin/../lib/gcc/avr32/4.4.7/../../../../avr32/lib/ucr3fp\libc.a(lib_a-s_isinfd.o)
 .debug_abbrev  0x00014c31      0x192 d:/programmes/atmel/studio/7.0/toolchain/avr32/avr32-gnu-toolchain/bin/../lib/gcc/avr32/4.4.7/../../../../avr32/lib/ucr3fp\libc.a(lib_a-stdio.o)
 .debug_abbrev  0x00014dc3      0x175 d:/programmes/atmel/studio/7.0/toolchain/avr32/avr32-gnu-toolchain/bin/../lib/gcc/avr32/4.4.7/../../../../avr32/lib/ucr3fp\libc.a(lib_a-writer.o)
 .debug_abbrev  0x00014f38      0x193 d:/programmes/atmel/studio/7.0/toolchain/avr32/avr32-gnu-toolchain/bin/../lib/gcc/avr32/4.4.7/../../../../avr32/lib/ucr3fp\libc.a(lib_a-callocr.o)
 .debug_abbrev  0x000150cb      0x170 d:/programmes/atmel/studio/7.0/toolchain/avr32/avr32-gnu-toolchain/bin/../lib/gcc/avr32/4.4.7/../../../../avr32/lib/ucr3fp\libc.a(lib_a-closer.o)
 .debug_abbrev  0x0001523b      0x1a1 d:/programmes/atmel/studio/7.0/toolchain/avr32/avr32-gnu-toolchain/bin/../lib/gcc/avr32/4.4.7/../../../../avr32/lib/ucr3fp\libc.a(lib_a-fclose.o)
 .debug_abbrev  0x000153dc      0x17f d:/programmes/atmel/studio/7.0/toolchain/avr32/avr32-gnu-toolchain/bin/../lib/gcc/avr32/4.4.7/../../../../avr32/lib/ucr3fp\libc.a(lib_a-fstatr.o)
 .debug_abbrev  0x0001555b      0x17f d:/programmes/atmel/studio/7.0/toolchain/avr32/avr32-gnu-toolchain/bin/../lib/gcc/avr32/4.4.7/../../../../avr32/lib/ucr3fp\libc.a(lib_a-lseekr.o)
 .debug_abbrev  0x000156da      0x170 d:/programmes/atmel/studio/7.0/toolchain/avr32/avr32-gnu-toolchain/bin/../lib/gcc/avr32/4.4.7/../../../../avr32/lib/ucr3fp\libc.a(lib_a-readr.o)

.debug_line     0x00000000    0x3e7b3
 *(.debug_line)
 .debug_line    0x00000000      0x22c Library/communication/console.o
 .debug_line    0x0000022c     0x111f Library/communication/data_logging.o
 .debug_line    0x0000134b      0x39a Library/communication/data_logging_telemetry.o
 .debug_line    0x000016e5      0x686 Library/communication/hud_telemetry.o
 .debug_line    0x00001d6b      0x50c Library/communication/mavlink_communication.o
 .debug_line    0x00002277      0x91d Library/communication/mavlink_message_handler.o
 .debug_line    0x00002b94     0x2cd7 Library/communication/mavlink_waypoint_handler.o
 .debug_line    0x0000586b      0x864 Library/communication/remote.o
 .debug_line    0x000060cf      0x8e6 Library/communication/remote_telemetry.o
 .debug_line    0x000069b5      0x1ff Library/communication/state.o
 .debug_line    0x00006bb4      0x4bc Library/communication/state_machine.o
 .debug_line    0x00007070      0xb22 Library/communication/state_telemetry.o
 .debug_line    0x00007b92      0x217 Library/control/adaptive_parameter.o
 .debug_line    0x00007da9      0x108 Library/control/altitude_controller.o
 .debug_line    0x00007eb1      0x331 Library/control/attitude_controller.o
 .debug_line    0x000081e2      0x234 Library/control/attitude_controller_p2.o
 .debug_line    0x00008416      0x3af Library/control/attitude_error_estimator.o
 .debug_line    0x000087c5      0x4fc Library/control/joystick_parsing.o
 .debug_line    0x00008cc1      0x71a Library/control/joystick_parsing_telemetry.o
 .debug_line    0x000093db      0x3b2 Library/control/pid_controller.o
 .debug_line    0x0000978d      0x25c Library/control/servos_mix_quadcopter_cross.o
 .debug_line    0x000099e9      0x28a Library/control/servos_mix_quadcopter_diag.o
 .debug_line    0x00009c73      0xc00 Library/control/stabilisation_copter.o
 .debug_line    0x0000a873      0xc7a Library/control/stabilisation_telemetry.o
 .debug_line    0x0000b4ed      0x934 Library/control/vector_field_waypoint.o
 .debug_line    0x0000be21      0x624 Library/control/velocity_controller_copter.o
 .debug_line    0x0000c445      0x478 Library/hal/analog_monitor_telemetry.o
 .debug_line    0x0000c8bd      0x382 Library/hal/analog_monitor.o
 .debug_line    0x0000cc3f      0x5b9 Library/hal/bmp085_telemetry.o
 .debug_line    0x0000d1f8      0x271 Library/hal/fat_fs/diskio.o
 .debug_line    0x0000d469     0x3e68 Library/hal/fat_fs/ff.o
 .debug_line    0x000112d1       0xea Library/hal/fat_fs/option/ccsbcs.o
 .debug_line    0x000113bb       0xaf Library/hal/fat_fs/option/syscall.o
 .debug_line    0x0001146a        0x0 Library/hal/fat_fs/option/unicode.o
 .debug_line    0x0001146a     0x1644 Library/hal/gps_ublox.o
 .debug_line    0x00012aae      0x6aa Library/hal/gps_ublox_telemetry.o
 .debug_line    0x00013158      0x1c1 Library/hal/hmc5883l.o
 .debug_line    0x00013319      0x465 Library/hal/i2c_driver_int.o
 .debug_line    0x0001377e      0x36c Library/hal/lsm330dlc.o
 .debug_line    0x00013aea      0x420 Library/hal/piezo_speaker.o
 .debug_line    0x00013f0a      0x34f Library/hal/pwm_servos.o
 .debug_line    0x00014259     0x18d8 Library/hal/sd_spi.o
 .debug_line    0x00015b31      0x17b Library/hal/servos.o
 .debug_line    0x00015cac      0x4fd Library/hal/servos_telemetry.o
 .debug_line    0x000161a9      0x284 Library/hal/sonar_i2cxl.o
 .debug_line    0x0001642d      0x611 Library/hal/sonar_telemetry.o
 .debug_line    0x00016a3e      0x65f Library/hal/spektrum_satellite.o
 .debug_line    0x0001709d      0x1e2 Library/hal/time_keeper.o
 .debug_line    0x0001727f      0x1b7 Library/hal/usb_int.o
 .debug_line    0x00017436      0x1dd Library/hal/xbee.o
 .debug_line    0x00017613      0xbfa Library/runtime/scheduler_telemetry.o
 .debug_line    0x0001820d      0x1b3 Library/sensing/ahrs.o
 .debug_line    0x000183c0      0x757 Library/sensing/ahrs_telemetry.o
 .debug_line    0x00018b17      0x1a0 Library/sensing/altitude_estimation.o
 .debug_line    0x00018cb7      0x9a8 Library/sensing/imu_telemetry.o
 .debug_line    0x0001965f      0xafb Library/sensing/position_estimation.o
 .debug_line    0x0001a15a      0xa14 Library/sensing/position_estimation_telemetry.o
 .debug_line    0x0001ab6e      0x93e Library/sensing/qfilter.o
 .debug_line    0x0001b4ac      0xd44 Library/sensing/simulation_telemetry.o
 .debug_line    0x0001c1f0      0x5d3 Library/util/linear_algebra.o
 .debug_line    0x0001c7c3      0x3ad Library/util/matrixlib_float.o
 .debug_line    0x0001cb70      0x391 Library/util/quick_trig.o
 .debug_line    0x0001cf01      0xa8d src/central_data.o
 .debug_line    0x0001d98e      0x8da src/mavlink_telemetry.o
 .debug_line    0x0001e268      0x874 src/tasks.o
 .debug_line    0x0001eadc      0x575 Library/communication/mavlink_stream.o
 .debug_line    0x0001f051      0xcfb Library/communication/onboard_parameters.o
 .debug_line    0x0001fd4c     0x1472 Library/control/navigation.o
 .debug_line    0x000211be      0x19c Library/control/stabilisation.o
 .debug_line    0x0002135a      0x4ff Library/hal/adc_int.o
 .debug_line    0x00021859      0x3a0 Library/hal/ads1274.o
 .debug_line    0x00021bf9      0x5d3 Library/hal/bmp085.o
 .debug_line    0x000221cc      0x3fd Library/hal/dac_dma.o
 .debug_line    0x000225c9      0x3f4 Library/hal/led.o
 .debug_line    0x000229bd      0x70c Library/hal/spi_buffered.o
 .debug_line    0x000230c9      0x3fe Library/hal/uart_int.o
 .debug_line    0x000234c7      0x485 Library/runtime/scheduler.o
 .debug_line    0x0002394c      0x504 Library/sensing/imu.o
 .debug_line    0x00023e50     0x162d Library/sensing/simulation.o
 .debug_line    0x0002547d      0x2c6 Library/util/buffer.o
 .debug_line    0x00025743      0x2ef Library/util/coord_conventions.o
 .debug_line    0x00025a32      0x1af Library/util/generator.o
 .debug_line    0x00025be1      0x518 Library/util/print_util.o
 .debug_line    0x000260f9       0xe1 Library/util/sinus.o
 .debug_line    0x000261da      0x4f1 src/asf/avr32/drivers/adcifa/adcifa.o
 .debug_line    0x000266cb      0x484 src/asf/avr32/drivers/ast/ast.o
 .debug_line    0x00026b4f      0x481 src/asf/avr32/drivers/dacifb/dacifb.o
 .debug_line    0x00026fd0      0x418 src/asf/avr32/drivers/eic/eic.o
 .debug_line    0x000273e8     0x135a src/asf/avr32/drivers/flashc/flashc.o
 .debug_line    0x00028742      0x8c9 src/asf/avr32/drivers/gpio/gpio.o
 .debug_line    0x0002900b      0x170 src/asf/avr32/drivers/intc/intc.o
 .debug_line    0x0002917b      0x50f src/asf/avr32/drivers/pdca/pdca.o
 .debug_line    0x0002968a      0x2cc src/asf/avr32/drivers/pevc/pevc.o
 .debug_line    0x00029956      0x306 src/asf/avr32/drivers/pm/pm_uc3c.o
 .debug_line    0x00029c5c      0x2f5 src/asf/avr32/drivers/pm/power_clocks_lib.o
 .debug_line    0x00029f51      0x89f src/asf/avr32/drivers/pwm/pwm4.o
 .debug_line    0x0002a7f0      0x9bc src/asf/avr32/drivers/scif/scif_uc3c.o
 .debug_line    0x0002b1ac      0x4d9 src/asf/avr32/drivers/spi/spi.o
 .debug_line    0x0002b685      0x48f src/asf/avr32/drivers/tc/tc.o
 .debug_line    0x0002bb14      0x9c3 src/asf/avr32/drivers/twim/twim.o
 .debug_line    0x0002c4d7      0x8fd src/asf/avr32/drivers/usart/usart.o
 .debug_line    0x0002cdd4     0x12f5 src/asf/avr32/drivers/usbc/usbc_device.o
 .debug_line    0x0002e0c9      0x16c src/asf/avr32/services/delay/delay.o
 .debug_line    0x0002e235       0x73 src/asf/common/boards/user_board/init.o
 .debug_line    0x0002e2a8      0x3d6 src/asf/common/services/clock/uc3c/osc.o
 .debug_line    0x0002e67e      0x24b src/asf/common/services/clock/uc3c/pll.o
 .debug_line    0x0002e8c9      0x4d0 src/asf/common/services/clock/uc3c/sysclk.o
 .debug_line    0x0002ed99       0xe5 src/asf/common/services/sleepmgr/uc3/sleepmgr.o
 .debug_line    0x0002ee7e      0x427 src/asf/common/services/spi/uc3_spi/spi_master.o
 .debug_line    0x0002f2a5      0xb93 src/asf/common/services/usb/class/cdc/device/udi_cdc.o
 .debug_line    0x0002fe38      0x1bf src/asf/common/services/usb/class/cdc/device/udi_cdc_desc.o
 .debug_line    0x0002fff7      0x7e7 src/asf/common/services/usb/udc/udc.o
 .debug_line    0x000307de       0xa4 src/asf/common/utils/stdio/read.o
 .debug_line    0x00030882      0x183 src/asf/common/utils/stdio/stdio_usb/stdio_usb.o
 .debug_line    0x00030a05       0x8d src/asf/common/utils/stdio/write.o
 .debug_line    0x00030a92      0x869 src/boardsupport.o
 .debug_line    0x000312fb      0x66d src/main.o
 .debug_line    0x00031968      0x254 d:/programmes/atmel/studio/7.0/toolchain/avr32/avr32-gnu-toolchain/bin/../lib/gcc/avr32/4.4.7/../../../../avr32/lib/ucr3fp\libm.a(lib_a-s_cos.o)
 .debug_line    0x00031bbc      0x2a5 d:/programmes/atmel/studio/7.0/toolchain/avr32/avr32-gnu-toolchain/bin/../lib/gcc/avr32/4.4.7/../../../../avr32/lib/ucr3fp\libm.a(lib_a-s_floor.o)
 .debug_line    0x00031e61      0x255 d:/programmes/atmel/studio/7.0/toolchain/avr32/avr32-gnu-toolchain/bin/../lib/gcc/avr32/4.4.7/../../../../avr32/lib/ucr3fp\libm.a(lib_a-s_sin.o)
 .debug_line    0x000320b6      0x185 d:/programmes/atmel/studio/7.0/toolchain/avr32/avr32-gnu-toolchain/bin/../lib/gcc/avr32/4.4.7/../../../../avr32/lib/ucr3fp\libm.a(lib_a-w_asin.o)
 .debug_line    0x0003223b      0x11a d:/programmes/atmel/studio/7.0/toolchain/avr32/avr32-gnu-toolchain/bin/../lib/gcc/avr32/4.4.7/../../../../avr32/lib/ucr3fp\libm.a(lib_a-w_atan2.o)
 .debug_line    0x00032355      0x19d d:/programmes/atmel/studio/7.0/toolchain/avr32/avr32-gnu-toolchain/bin/../lib/gcc/avr32/4.4.7/../../../../avr32/lib/ucr3fp\libm.a(lib_a-w_fmod.o)
 .debug_line    0x000324f2      0x322 d:/programmes/atmel/studio/7.0/toolchain/avr32/avr32-gnu-toolchain/bin/../lib/gcc/avr32/4.4.7/../../../../avr32/lib/ucr3fp\libm.a(lib_a-w_pow.o)
 .debug_line    0x00032814      0x19c d:/programmes/atmel/studio/7.0/toolchain/avr32/avr32-gnu-toolchain/bin/../lib/gcc/avr32/4.4.7/../../../../avr32/lib/ucr3fp\libm.a(lib_a-w_sqrt.o)
 .debug_line    0x000329b0      0x197 d:/programmes/atmel/studio/7.0/toolchain/avr32/avr32-gnu-toolchain/bin/../lib/gcc/avr32/4.4.7/../../../../avr32/lib/ucr3fp\libm.a(lib_a-wf_sqrt.o)
 .debug_line    0x00032b47      0x27c d:/programmes/atmel/studio/7.0/toolchain/avr32/avr32-gnu-toolchain/bin/../lib/gcc/avr32/4.4.7/../../../../avr32/lib/ucr3fp\libm.a(lib_a-e_asin.o)
 .debug_line    0x00032dc3      0x288 d:/programmes/atmel/studio/7.0/toolchain/avr32/avr32-gnu-toolchain/bin/../lib/gcc/avr32/4.4.7/../../../../avr32/lib/ucr3fp\libm.a(lib_a-e_atan2.o)
 .debug_line    0x0003304b      0x353 d:/programmes/atmel/studio/7.0/toolchain/avr32/avr32-gnu-toolchain/bin/../lib/gcc/avr32/4.4.7/../../../../avr32/lib/ucr3fp\libm.a(lib_a-e_fmod.o)
 .debug_line    0x0003339e      0x5f3 d:/programmes/atmel/studio/7.0/toolchain/avr32/avr32-gnu-toolchain/bin/../lib/gcc/avr32/4.4.7/../../../../avr32/lib/ucr3fp\libm.a(lib_a-e_pow.o)
 .debug_line    0x00033991      0x3b8 d:/programmes/atmel/studio/7.0/toolchain/avr32/avr32-gnu-toolchain/bin/../lib/gcc/avr32/4.4.7/../../../../avr32/lib/ucr3fp\libm.a(lib_a-e_rem_pio2.o)
 .debug_line    0x00033d49      0x35a d:/programmes/atmel/studio/7.0/toolchain/avr32/avr32-gnu-toolchain/bin/../lib/gcc/avr32/4.4.7/../../../../avr32/lib/ucr3fp\libm.a(lib_a-e_sqrt.o)
 .debug_line    0x000340a3      0x1d9 d:/programmes/atmel/studio/7.0/toolchain/avr32/avr32-gnu-toolchain/bin/../lib/gcc/avr32/4.4.7/../../../../avr32/lib/ucr3fp\libm.a(lib_a-ef_sqrt.o)
 .debug_line    0x0003427c      0x1f1 d:/programmes/atmel/studio/7.0/toolchain/avr32/avr32-gnu-toolchain/bin/../lib/gcc/avr32/4.4.7/../../../../avr32/lib/ucr3fp\libm.a(lib_a-k_cos.o)
 .debug_line    0x0003446d      0x4e3 d:/programmes/atmel/studio/7.0/toolchain/avr32/avr32-gnu-toolchain/bin/../lib/gcc/avr32/4.4.7/../../../../avr32/lib/ucr3fp\libm.a(lib_a-k_rem_pio2.o)
 .debug_line    0x00034950      0x178 d:/programmes/atmel/studio/7.0/toolchain/avr32/avr32-gnu-toolchain/bin/../lib/gcc/avr32/4.4.7/../../../../avr32/lib/ucr3fp\libm.a(lib_a-k_sin.o)
 .debug_line    0x00034ac8      0x2d4 d:/programmes/atmel/studio/7.0/toolchain/avr32/avr32-gnu-toolchain/bin/../lib/gcc/avr32/4.4.7/../../../../avr32/lib/ucr3fp\libm.a(lib_a-s_atan.o)
 .debug_line    0x00034d9c      0x214 d:/programmes/atmel/studio/7.0/toolchain/avr32/avr32-gnu-toolchain/bin/../lib/gcc/avr32/4.4.7/../../../../avr32/lib/ucr3fp\libm.a(lib_a-s_fabs.o)
 .debug_line    0x00034fb0      0x1aa d:/programmes/atmel/studio/7.0/toolchain/avr32/avr32-gnu-toolchain/bin/../lib/gcc/avr32/4.4.7/../../../../avr32/lib/ucr3fp\libm.a(lib_a-s_finite.o)
 .debug_line    0x0003515a      0x1b1 d:/programmes/atmel/studio/7.0/toolchain/avr32/avr32-gnu-toolchain/bin/../lib/gcc/avr32/4.4.7/../../../../avr32/lib/ucr3fp\libm.a(lib_a-s_isnand.o)
 .debug_line    0x0003530b       0x8d d:/programmes/atmel/studio/7.0/toolchain/avr32/avr32-gnu-toolchain/bin/../lib/gcc/avr32/4.4.7/../../../../avr32/lib/ucr3fp\libm.a(lib_a-s_lib_ver.o)
 .debug_line    0x00035398      0x118 d:/programmes/atmel/studio/7.0/toolchain/avr32/avr32-gnu-toolchain/bin/../lib/gcc/avr32/4.4.7/../../../../avr32/lib/ucr3fp\libm.a(lib_a-s_matherr.o)
 .debug_line    0x000354b0      0x113 d:/programmes/atmel/studio/7.0/toolchain/avr32/avr32-gnu-toolchain/bin/../lib/gcc/avr32/4.4.7/../../../../avr32/lib/ucr3fp\libm.a(lib_a-s_nan.o)
 .debug_line    0x000355c3      0x26e d:/programmes/atmel/studio/7.0/toolchain/avr32/avr32-gnu-toolchain/bin/../lib/gcc/avr32/4.4.7/../../../../avr32/lib/ucr3fp\libm.a(lib_a-s_rint.o)
 .debug_line    0x00035831      0x229 d:/programmes/atmel/studio/7.0/toolchain/avr32/avr32-gnu-toolchain/bin/../lib/gcc/avr32/4.4.7/../../../../avr32/lib/ucr3fp\libm.a(lib_a-s_scalbn.o)
 .debug_line    0x00035a5a      0x1aa d:/programmes/atmel/studio/7.0/toolchain/avr32/avr32-gnu-toolchain/bin/../lib/gcc/avr32/4.4.7/../../../../avr32/lib/ucr3fp\libm.a(lib_a-sf_isnan.o)
 .debug_line    0x00035c04      0x1ad d:/programmes/atmel/studio/7.0/toolchain/avr32/avr32-gnu-toolchain/bin/../lib/gcc/avr32/4.4.7/../../../../avr32/lib/ucr3fp\libm.a(lib_a-s_copysign.o)
 .debug_line    0x00035db1       0xbe d:/programmes/atmel/studio/7.0/toolchain/avr32/avr32-gnu-toolchain/bin/../lib/gcc/avr32/4.4.7/ucr3fp\libgcc.a(_floatdidf.o)
 .debug_line    0x00035e6f      0x234 d:/programmes/atmel/studio/7.0/toolchain/avr32/avr32-gnu-toolchain/bin/../lib/gcc/avr32/4.4.7/ucr3fp\libgcc.a(_divdi3.o)
 .debug_line    0x000360a3      0x24c d:/programmes/atmel/studio/7.0/toolchain/avr32/avr32-gnu-toolchain/bin/../lib/gcc/avr32/4.4.7/ucr3fp\libgcc.a(_moddi3.o)
 .debug_line    0x000362ef      0x1d5 d:/programmes/atmel/studio/7.0/toolchain/avr32/avr32-gnu-toolchain/bin/../lib/gcc/avr32/4.4.7/ucr3fp\libgcc.a(_udivdi3.o)
 .debug_line    0x000364c4      0x1f1 d:/programmes/atmel/studio/7.0/toolchain/avr32/avr32-gnu-toolchain/bin/../lib/gcc/avr32/4.4.7/ucr3fp\libgcc.a(_umoddi3.o)
 .debug_line    0x000366b5      0x1ce d:/programmes/atmel/studio/7.0/toolchain/avr32/avr32-gnu-toolchain/bin/../lib/gcc/avr32/4.4.7/../../../../avr32/lib/ucr3fp\libc.a(lib_a-errno.o)
 .debug_line    0x00036883      0x1a8 d:/programmes/atmel/studio/7.0/toolchain/avr32/avr32-gnu-toolchain/bin/../lib/gcc/avr32/4.4.7/../../../../avr32/lib/ucr3fp\libc.a(lib_a-impure.o)
 .debug_line    0x00036a2b      0x255 d:/programmes/atmel/studio/7.0/toolchain/avr32/avr32-gnu-toolchain/bin/../lib/gcc/avr32/4.4.7/../../../../avr32/lib/ucr3fp\libc.a(lib_a-malloc.o)
 .debug_line    0x00036c80      0x571 d:/programmes/atmel/studio/7.0/toolchain/avr32/avr32-gnu-toolchain/bin/../lib/gcc/avr32/4.4.7/../../../../avr32/lib/ucr3fp\libc.a(lib_a-mallocr.o)
 .debug_line    0x000371f1      0x1be d:/programmes/atmel/studio/7.0/toolchain/avr32/avr32-gnu-toolchain/bin/../lib/gcc/avr32/4.4.7/../../../../avr32/lib/ucr3fp\libc.a(lib_a-memset.o)
 .debug_line    0x000373af      0x1d4 d:/programmes/atmel/studio/7.0/toolchain/avr32/avr32-gnu-toolchain/bin/../lib/gcc/avr32/4.4.7/../../../../avr32/lib/ucr3fp\libc.a(lib_a-mlock.o)
 .debug_line    0x00037583      0x271 d:/programmes/atmel/studio/7.0/toolchain/avr32/avr32-gnu-toolchain/bin/../lib/gcc/avr32/4.4.7/../../../../avr32/lib/ucr3fp\libc.a(lib_a-rand.o)
 .debug_line    0x000377f4      0x258 d:/programmes/atmel/studio/7.0/toolchain/avr32/avr32-gnu-toolchain/bin/../lib/gcc/avr32/4.4.7/../../../../avr32/lib/ucr3fp\libc.a(lib_a-sbrkr.o)
 .debug_line    0x00037a4c      0x302 d:/programmes/atmel/studio/7.0/toolchain/avr32/avr32-gnu-toolchain/bin/../lib/gcc/avr32/4.4.7/../../../../avr32/lib/ucr3fp\libc.a(lib_a-snprintf.o)
 .debug_line    0x00037d4e      0x122 d:/programmes/atmel/studio/7.0/toolchain/avr32/avr32-gnu-toolchain/bin/../lib/gcc/avr32/4.4.7/../../../../avr32/lib/ucr3fp\libc.a(lib_a-strcpy.o)
 .debug_line    0x00037e70      0x1c4 d:/programmes/atmel/studio/7.0/toolchain/avr32/avr32-gnu-toolchain/bin/../lib/gcc/avr32/4.4.7/../../../../avr32/lib/ucr3fp\libc.a(lib_a-strlen.o)
 .debug_line    0x00038034      0x58e d:/programmes/atmel/studio/7.0/toolchain/avr32/avr32-gnu-toolchain/bin/../lib/gcc/avr32/4.4.7/../../../../avr32/lib/ucr3fp\libc.a(lib_a-syscalls.o)
 .debug_line    0x000385c2      0xce5 d:/programmes/atmel/studio/7.0/toolchain/avr32/avr32-gnu-toolchain/bin/../lib/gcc/avr32/4.4.7/../../../../avr32/lib/ucr3fp\libc.a(lib_a-vfprintf.o)
 .debug_line    0x000392a7      0x2a1 d:/programmes/atmel/studio/7.0/toolchain/avr32/avr32-gnu-toolchain/bin/../lib/gcc/avr32/4.4.7/../../../../avr32/lib/ucr3fp\libc.a(lib_a-wsetup.o)
 .debug_line    0x00039548      0xc1b d:/programmes/atmel/studio/7.0/toolchain/avr32/avr32-gnu-toolchain/bin/../lib/gcc/avr32/4.4.7/../../../../avr32/lib/ucr3fp\libc.a(lib_a-dtoa.o)
 .debug_line    0x0003a163      0x355 d:/programmes/atmel/studio/7.0/toolchain/avr32/avr32-gnu-toolchain/bin/../lib/gcc/avr32/4.4.7/../../../../avr32/lib/ucr3fp\libc.a(lib_a-fflush.o)
 .debug_line    0x0003a4b8      0x5ad d:/programmes/atmel/studio/7.0/toolchain/avr32/avr32-gnu-toolchain/bin/../lib/gcc/avr32/4.4.7/../../../../avr32/lib/ucr3fp\libc.a(lib_a-findfp.o)
 .debug_line    0x0003aa65      0x34c d:/programmes/atmel/studio/7.0/toolchain/avr32/avr32-gnu-toolchain/bin/../lib/gcc/avr32/4.4.7/../../../../avr32/lib/ucr3fp\libc.a(lib_a-freer.o)
 .debug_line    0x0003adb1      0x489 d:/programmes/atmel/studio/7.0/toolchain/avr32/avr32-gnu-toolchain/bin/../lib/gcc/avr32/4.4.7/../../../../avr32/lib/ucr3fp\libc.a(lib_a-fvwrite.o)
 .debug_line    0x0003b23a      0x2fa d:/programmes/atmel/studio/7.0/toolchain/avr32/avr32-gnu-toolchain/bin/../lib/gcc/avr32/4.4.7/../../../../avr32/lib/ucr3fp\libc.a(lib_a-fwalk.o)
 .debug_line    0x0003b534      0x2bf d:/programmes/atmel/studio/7.0/toolchain/avr32/avr32-gnu-toolchain/bin/../lib/gcc/avr32/4.4.7/../../../../avr32/lib/ucr3fp\libc.a(lib_a-locale.o)
 .debug_line    0x0003b7f3      0x30b d:/programmes/atmel/studio/7.0/toolchain/avr32/avr32-gnu-toolchain/bin/../lib/gcc/avr32/4.4.7/../../../../avr32/lib/ucr3fp\libc.a(lib_a-makebuf.o)
 .debug_line    0x0003bafe      0x1bf d:/programmes/atmel/studio/7.0/toolchain/avr32/avr32-gnu-toolchain/bin/../lib/gcc/avr32/4.4.7/../../../../avr32/lib/ucr3fp\libc.a(lib_a-memchr.o)
 .debug_line    0x0003bcbd      0x1d2 d:/programmes/atmel/studio/7.0/toolchain/avr32/avr32-gnu-toolchain/bin/../lib/gcc/avr32/4.4.7/../../../../avr32/lib/ucr3fp\libc.a(lib_a-memmove.o)
 .debug_line    0x0003be8f      0xd69 d:/programmes/atmel/studio/7.0/toolchain/avr32/avr32-gnu-toolchain/bin/../lib/gcc/avr32/4.4.7/../../../../avr32/lib/ucr3fp\libc.a(lib_a-mprec.o)
 .debug_line    0x0003cbf8      0x389 d:/programmes/atmel/studio/7.0/toolchain/avr32/avr32-gnu-toolchain/bin/../lib/gcc/avr32/4.4.7/../../../../avr32/lib/ucr3fp\libc.a(lib_a-reallocr.o)
 .debug_line    0x0003cf81      0x2ec d:/programmes/atmel/studio/7.0/toolchain/avr32/avr32-gnu-toolchain/bin/../lib/gcc/avr32/4.4.7/../../../../avr32/lib/ucr3fp\libc.a(lib_a-reent.o)
 .debug_line    0x0003d26d      0x1bc d:/programmes/atmel/studio/7.0/toolchain/avr32/avr32-gnu-toolchain/bin/../lib/gcc/avr32/4.4.7/../../../../avr32/lib/ucr3fp\libc.a(lib_a-s_isinfd.o)
 .debug_line    0x0003d429      0x303 d:/programmes/atmel/studio/7.0/toolchain/avr32/avr32-gnu-toolchain/bin/../lib/gcc/avr32/4.4.7/../../../../avr32/lib/ucr3fp\libc.a(lib_a-stdio.o)
 .debug_line    0x0003d72c      0x265 d:/programmes/atmel/studio/7.0/toolchain/avr32/avr32-gnu-toolchain/bin/../lib/gcc/avr32/4.4.7/../../../../avr32/lib/ucr3fp\libc.a(lib_a-writer.o)
 .debug_line    0x0003d991      0x1d3 d:/programmes/atmel/studio/7.0/toolchain/avr32/avr32-gnu-toolchain/bin/../lib/gcc/avr32/4.4.7/../../../../avr32/lib/ucr3fp\libc.a(lib_a-callocr.o)
 .debug_line    0x0003db64      0x259 d:/programmes/atmel/studio/7.0/toolchain/avr32/avr32-gnu-toolchain/bin/../lib/gcc/avr32/4.4.7/../../../../avr32/lib/ucr3fp\libc.a(lib_a-closer.o)
 .debug_line    0x0003ddbd      0x2bf d:/programmes/atmel/studio/7.0/toolchain/avr32/avr32-gnu-toolchain/bin/../lib/gcc/avr32/4.4.7/../../../../avr32/lib/ucr3fp\libc.a(lib_a-fclose.o)
 .debug_line    0x0003e07c      0x26e d:/programmes/atmel/studio/7.0/toolchain/avr32/avr32-gnu-toolchain/bin/../lib/gcc/avr32/4.4.7/../../../../avr32/lib/ucr3fp\libc.a(lib_a-fstatr.o)
 .debug_line    0x0003e2ea      0x265 d:/programmes/atmel/studio/7.0/toolchain/avr32/avr32-gnu-toolchain/bin/../lib/gcc/avr32/4.4.7/../../../../avr32/lib/ucr3fp\libc.a(lib_a-lseekr.o)
 .debug_line    0x0003e54f      0x264 d:/programmes/atmel/studio/7.0/toolchain/avr32/avr32-gnu-toolchain/bin/../lib/gcc/avr32/4.4.7/../../../../avr32/lib/ucr3fp\libc.a(lib_a-readr.o)

.debug_frame    0x00000000     0xa548
 *(.debug_frame)
 .debug_frame   0x00000000       0x74 Library/communication/console.o
 .debug_frame   0x00000074      0x2d4 Library/communication/data_logging.o
 .debug_frame   0x00000348       0x58 Library/communication/data_logging_telemetry.o
 .debug_frame   0x000003a0       0x64 Library/communication/hud_telemetry.o
 .debug_frame   0x00000404      0x11c Library/communication/mavlink_communication.o
 .debug_frame   0x00000520      0x100 Library/communication/mavlink_message_handler.o
 .debug_frame   0x00000620      0x3cc Library/communication/mavlink_waypoint_handler.o
 .debug_frame   0x000009ec      0x298 Library/communication/remote.o
 .debug_frame   0x00000c84       0xbc Library/communication/remote_telemetry.o
 .debug_frame   0x00000d40       0x50 Library/communication/state.o
 .debug_frame   0x00000d90       0x60 Library/communication/state_machine.o
 .debug_frame   0x00000df0      0x114 Library/communication/state_telemetry.o
 .debug_frame   0x00000f04       0xd4 Library/control/adaptive_parameter.o
 .debug_frame   0x00000fd8       0x48 Library/control/altitude_controller.o
 .debug_frame   0x00001020       0x68 Library/control/attitude_controller.o
 .debug_frame   0x00001088       0x64 Library/control/attitude_controller_p2.o
 .debug_frame   0x000010ec       0xc8 Library/control/attitude_error_estimator.o
 .debug_frame   0x000011b4      0x234 Library/control/joystick_parsing.o
 .debug_frame   0x000013e8       0x94 Library/control/joystick_parsing_telemetry.o
 .debug_frame   0x0000147c       0xd8 Library/control/pid_controller.o
 .debug_frame   0x00001554       0x50 Library/control/servos_mix_quadcopter_cross.o
 .debug_frame   0x000015a4       0x54 Library/control/servos_mix_quadcopter_diag.o
 .debug_frame   0x000015f8      0x104 Library/control/stabilisation_copter.o
 .debug_frame   0x000016fc       0xd0 Library/control/stabilisation_telemetry.o
 .debug_frame   0x000017cc       0x64 Library/control/vector_field_waypoint.o
 .debug_frame   0x00001830       0x74 Library/control/velocity_controller_copter.o
 .debug_frame   0x000018a4       0x44 Library/hal/analog_monitor_telemetry.o
 .debug_frame   0x000018e8       0x9c Library/hal/analog_monitor.o
 .debug_frame   0x00001984       0x44 Library/hal/bmp085_telemetry.o
 .debug_frame   0x000019c8       0xe8 Library/hal/fat_fs/diskio.o
 .debug_frame   0x00001ab0      0x710 Library/hal/fat_fs/ff.o
 .debug_frame   0x000021c0       0x50 Library/hal/fat_fs/option/ccsbcs.o
 .debug_frame   0x00002210       0x50 Library/hal/fat_fs/option/syscall.o
 .debug_frame   0x00002260      0x118 Library/hal/gps_ublox.o
 .debug_frame   0x00002378       0x44 Library/hal/gps_ublox_telemetry.o
 .debug_frame   0x000023bc       0x58 Library/hal/hmc5883l.o
 .debug_frame   0x00002414       0x98 Library/hal/i2c_driver_int.o
 .debug_frame   0x000024ac       0x98 Library/hal/lsm330dlc.o
 .debug_frame   0x00002544      0x140 Library/hal/piezo_speaker.o
 .debug_frame   0x00002684       0xa0 Library/hal/pwm_servos.o
 .debug_frame   0x00002724      0x308 Library/hal/sd_spi.o
 .debug_frame   0x00002a2c       0x74 Library/hal/servos.o
 .debug_frame   0x00002aa0       0x40 Library/hal/servos_telemetry.o
 .debug_frame   0x00002ae0       0x9c Library/hal/sonar_i2cxl.o
 .debug_frame   0x00002b7c       0x44 Library/hal/sonar_telemetry.o
 .debug_frame   0x00002bc0      0x10c Library/hal/spektrum_satellite.o
 .debug_frame   0x00002ccc      0x118 Library/hal/time_keeper.o
 .debug_frame   0x00002de4       0xd0 Library/hal/usb_int.o
 .debug_frame   0x00002eb4       0x78 Library/hal/xbee.o
 .debug_frame   0x00002f2c       0x44 Library/runtime/scheduler_telemetry.o
 .debug_frame   0x00002f70       0x2c Library/sensing/ahrs.o
 .debug_frame   0x00002f9c       0x74 Library/sensing/ahrs_telemetry.o
 .debug_frame   0x00003010       0x48 Library/sensing/altitude_estimation.o
 .debug_frame   0x00003058       0xb8 Library/sensing/imu_telemetry.o
 .debug_frame   0x00003110       0xd4 Library/sensing/position_estimation.o
 .debug_frame   0x000031e4       0xc8 Library/sensing/position_estimation_telemetry.o
 .debug_frame   0x000032ac       0x64 Library/sensing/qfilter.o
 .debug_frame   0x00003310       0xd8 Library/sensing/simulation_telemetry.o
 .debug_frame   0x000033e8       0xa8 Library/util/linear_algebra.o
 .debug_frame   0x00003490      0x228 Library/util/matrixlib_float.o
 .debug_frame   0x000036b8       0xf8 Library/util/quick_trig.o
 .debug_frame   0x000037b0       0x80 src/central_data.o
 .debug_frame   0x00003830       0xc0 src/mavlink_telemetry.o
 .debug_frame   0x000038f0      0x13c src/tasks.o
 .debug_frame   0x00003a2c       0xa4 Library/communication/mavlink_stream.o
 .debug_frame   0x00003ad0      0x1e0 Library/communication/onboard_parameters.o
 .debug_frame   0x00003cb0      0x1a8 Library/control/navigation.o
 .debug_frame   0x00003e58       0x58 Library/control/stabilisation.o
 .debug_frame   0x00003eb0      0x19c Library/hal/adc_int.o
 .debug_frame   0x0000404c      0x12c Library/hal/ads1274.o
 .debug_frame   0x00004178       0xac Library/hal/bmp085.o
 .debug_frame   0x00004224      0x158 Library/hal/dac_dma.o
 .debug_frame   0x0000437c      0x188 Library/hal/led.o
 .debug_frame   0x00004504      0x348 Library/hal/spi_buffered.o
 .debug_frame   0x0000484c      0x254 Library/hal/uart_int.o
 .debug_frame   0x00004aa0      0x194 Library/runtime/scheduler.o
 .debug_frame   0x00004c34       0x74 Library/sensing/imu.o
 .debug_frame   0x00004ca8      0x1f4 Library/sensing/simulation.o
 .debug_frame   0x00004e9c      0x140 Library/util/buffer.o
 .debug_frame   0x00004fdc       0xfc Library/util/coord_conventions.o
 .debug_frame   0x000050d8       0x94 Library/util/generator.o
 .debug_frame   0x0000516c      0x2e8 Library/util/print_util.o
 .debug_frame   0x00005454      0x1a0 src/asf/avr32/drivers/adcifa/adcifa.o
 .debug_frame   0x000055f4      0x22c src/asf/avr32/drivers/ast/ast.o
 .debug_frame   0x00005820       0xf4 src/asf/avr32/drivers/dacifb/dacifb.o
 .debug_frame   0x00005914      0x1a4 src/asf/avr32/drivers/eic/eic.o
 .debug_frame   0x00005ab8      0x8ec src/asf/avr32/drivers/flashc/flashc.o
 .debug_frame   0x000063a4      0x3cc src/asf/avr32/drivers/gpio/gpio.o
 .debug_frame   0x00006770       0x98 src/asf/avr32/drivers/intc/intc.o
 .debug_frame   0x00006808      0x2ac src/asf/avr32/drivers/pdca/pdca.o
 .debug_frame   0x00006ab4      0x224 src/asf/avr32/drivers/pevc/pevc.o
 .debug_frame   0x00006cd8       0xd4 src/asf/avr32/drivers/pm/pm_uc3c.o
 .debug_frame   0x00006dac       0xd8 src/asf/avr32/drivers/pm/power_clocks_lib.o
 .debug_frame   0x00006e84      0x328 src/asf/avr32/drivers/pwm/pwm4.o
 .debug_frame   0x000071ac      0x4a8 src/asf/avr32/drivers/scif/scif_uc3c.o
 .debug_frame   0x00007654      0x21c src/asf/avr32/drivers/spi/spi.o
 .debug_frame   0x00007870      0x21c src/asf/avr32/drivers/tc/tc.o
 .debug_frame   0x00007a8c      0x1e4 src/asf/avr32/drivers/twim/twim.o
 .debug_frame   0x00007c70      0x388 src/asf/avr32/drivers/usart/usart.o
 .debug_frame   0x00007ff8      0x360 src/asf/avr32/drivers/usbc/usbc_device.o
 .debug_frame   0x00008358       0x50 src/asf/avr32/services/delay/delay.o
 .debug_frame   0x000083a8       0x30 src/asf/common/boards/user_board/init.o
 .debug_frame   0x000083d8       0xf0 src/asf/common/services/clock/uc3c/osc.o
 .debug_frame   0x000084c8       0x64 src/asf/common/services/clock/uc3c/pll.o
 .debug_frame   0x0000852c       0xe0 src/asf/common/services/clock/uc3c/sysclk.o
 .debug_frame   0x0000860c       0x74 src/asf/common/services/spi/uc3_spi/spi_master.o
 .debug_frame   0x00008680      0x36c src/asf/common/services/usb/class/cdc/device/udi_cdc.o
 .debug_frame   0x000089ec      0x130 src/asf/common/services/usb/udc/udc.o
 .debug_frame   0x00008b1c       0x40 src/asf/common/utils/stdio/read.o
 .debug_frame   0x00008b5c       0xd0 src/asf/common/utils/stdio/stdio_usb/stdio_usb.o
 .debug_frame   0x00008c2c       0x40 src/asf/common/utils/stdio/write.o
 .debug_frame   0x00008c6c       0x64 src/boardsupport.o
 .debug_frame   0x00008cd0       0x58 src/main.o
 .debug_frame   0x00008d28       0x38 d:/programmes/atmel/studio/7.0/toolchain/avr32/avr32-gnu-toolchain/bin/../lib/gcc/avr32/4.4.7/../../../../avr32/lib/ucr3fp\libm.a(lib_a-s_cos.o)
 .debug_frame   0x00008d60       0x40 d:/programmes/atmel/studio/7.0/toolchain/avr32/avr32-gnu-toolchain/bin/../lib/gcc/avr32/4.4.7/../../../../avr32/lib/ucr3fp\libm.a(lib_a-s_floor.o)
 .debug_frame   0x00008da0       0x38 d:/programmes/atmel/studio/7.0/toolchain/avr32/avr32-gnu-toolchain/bin/../lib/gcc/avr32/4.4.7/../../../../avr32/lib/ucr3fp\libm.a(lib_a-s_sin.o)
 .debug_frame   0x00008dd8       0x44 d:/programmes/atmel/studio/7.0/toolchain/avr32/avr32-gnu-toolchain/bin/../lib/gcc/avr32/4.4.7/../../../../avr32/lib/ucr3fp\libm.a(lib_a-w_asin.o)
 .debug_frame   0x00008e1c       0x28 d:/programmes/atmel/studio/7.0/toolchain/avr32/avr32-gnu-toolchain/bin/../lib/gcc/avr32/4.4.7/../../../../avr32/lib/ucr3fp\libm.a(lib_a-w_atan2.o)
 .debug_frame   0x00008e44       0x44 d:/programmes/atmel/studio/7.0/toolchain/avr32/avr32-gnu-toolchain/bin/../lib/gcc/avr32/4.4.7/../../../../avr32/lib/ucr3fp\libm.a(lib_a-w_fmod.o)
 .debug_frame   0x00008e88       0x44 d:/programmes/atmel/studio/7.0/toolchain/avr32/avr32-gnu-toolchain/bin/../lib/gcc/avr32/4.4.7/../../../../avr32/lib/ucr3fp\libm.a(lib_a-w_pow.o)
 .debug_frame   0x00008ecc       0x44 d:/programmes/atmel/studio/7.0/toolchain/avr32/avr32-gnu-toolchain/bin/../lib/gcc/avr32/4.4.7/../../../../avr32/lib/ucr3fp\libm.a(lib_a-w_sqrt.o)
 .debug_frame   0x00008f10       0x38 d:/programmes/atmel/studio/7.0/toolchain/avr32/avr32-gnu-toolchain/bin/../lib/gcc/avr32/4.4.7/../../../../avr32/lib/ucr3fp\libm.a(lib_a-wf_sqrt.o)
 .debug_frame   0x00008f48       0x44 d:/programmes/atmel/studio/7.0/toolchain/avr32/avr32-gnu-toolchain/bin/../lib/gcc/avr32/4.4.7/../../../../avr32/lib/ucr3fp\libm.a(lib_a-e_asin.o)
 .debug_frame   0x00008f8c       0x44 d:/programmes/atmel/studio/7.0/toolchain/avr32/avr32-gnu-toolchain/bin/../lib/gcc/avr32/4.4.7/../../../../avr32/lib/ucr3fp\libm.a(lib_a-e_atan2.o)
 .debug_frame   0x00008fd0       0x40 d:/programmes/atmel/studio/7.0/toolchain/avr32/avr32-gnu-toolchain/bin/../lib/gcc/avr32/4.4.7/../../../../avr32/lib/ucr3fp\libm.a(lib_a-e_fmod.o)
 .debug_frame   0x00009010       0x44 d:/programmes/atmel/studio/7.0/toolchain/avr32/avr32-gnu-toolchain/bin/../lib/gcc/avr32/4.4.7/../../../../avr32/lib/ucr3fp\libm.a(lib_a-e_pow.o)
 .debug_frame   0x00009054       0x4c d:/programmes/atmel/studio/7.0/toolchain/avr32/avr32-gnu-toolchain/bin/../lib/gcc/avr32/4.4.7/../../../../avr32/lib/ucr3fp\libm.a(lib_a-e_rem_pio2.o)
 .debug_frame   0x000090a0       0x40 d:/programmes/atmel/studio/7.0/toolchain/avr32/avr32-gnu-toolchain/bin/../lib/gcc/avr32/4.4.7/../../../../avr32/lib/ucr3fp\libm.a(lib_a-e_sqrt.o)
 .debug_frame   0x000090e0       0x34 d:/programmes/atmel/studio/7.0/toolchain/avr32/avr32-gnu-toolchain/bin/../lib/gcc/avr32/4.4.7/../../../../avr32/lib/ucr3fp\libm.a(lib_a-ef_sqrt.o)
 .debug_frame   0x00009114       0x44 d:/programmes/atmel/studio/7.0/toolchain/avr32/avr32-gnu-toolchain/bin/../lib/gcc/avr32/4.4.7/../../../../avr32/lib/ucr3fp\libm.a(lib_a-k_cos.o)
 .debug_frame   0x00009158       0x44 d:/programmes/atmel/studio/7.0/toolchain/avr32/avr32-gnu-toolchain/bin/../lib/gcc/avr32/4.4.7/../../../../avr32/lib/ucr3fp\libm.a(lib_a-k_rem_pio2.o)
 .debug_frame   0x0000919c       0x44 d:/programmes/atmel/studio/7.0/toolchain/avr32/avr32-gnu-toolchain/bin/../lib/gcc/avr32/4.4.7/../../../../avr32/lib/ucr3fp\libm.a(lib_a-k_sin.o)
 .debug_frame   0x000091e0       0x44 d:/programmes/atmel/studio/7.0/toolchain/avr32/avr32-gnu-toolchain/bin/../lib/gcc/avr32/4.4.7/../../../../avr32/lib/ucr3fp\libm.a(lib_a-s_atan.o)
 .debug_frame   0x00009224       0x20 d:/programmes/atmel/studio/7.0/toolchain/avr32/avr32-gnu-toolchain/bin/../lib/gcc/avr32/4.4.7/../../../../avr32/lib/ucr3fp\libm.a(lib_a-s_fabs.o)
 .debug_frame   0x00009244       0x20 d:/programmes/atmel/studio/7.0/toolchain/avr32/avr32-gnu-toolchain/bin/../lib/gcc/avr32/4.4.7/../../../../avr32/lib/ucr3fp\libm.a(lib_a-s_finite.o)
 .debug_frame   0x00009264       0x20 d:/programmes/atmel/studio/7.0/toolchain/avr32/avr32-gnu-toolchain/bin/../lib/gcc/avr32/4.4.7/../../../../avr32/lib/ucr3fp\libm.a(lib_a-s_isnand.o)
 .debug_frame   0x00009284       0x20 d:/programmes/atmel/studio/7.0/toolchain/avr32/avr32-gnu-toolchain/bin/../lib/gcc/avr32/4.4.7/../../../../avr32/lib/ucr3fp\libm.a(lib_a-s_matherr.o)
 .debug_frame   0x000092a4       0x20 d:/programmes/atmel/studio/7.0/toolchain/avr32/avr32-gnu-toolchain/bin/../lib/gcc/avr32/4.4.7/../../../../avr32/lib/ucr3fp\libm.a(lib_a-s_nan.o)
 .debug_frame   0x000092c4       0x38 d:/programmes/atmel/studio/7.0/toolchain/avr32/avr32-gnu-toolchain/bin/../lib/gcc/avr32/4.4.7/../../../../avr32/lib/ucr3fp\libm.a(lib_a-s_rint.o)
 .debug_frame   0x000092fc       0x34 d:/programmes/atmel/studio/7.0/toolchain/avr32/avr32-gnu-toolchain/bin/../lib/gcc/avr32/4.4.7/../../../../avr32/lib/ucr3fp\libm.a(lib_a-s_scalbn.o)
 .debug_frame   0x00009330       0x20 d:/programmes/atmel/studio/7.0/toolchain/avr32/avr32-gnu-toolchain/bin/../lib/gcc/avr32/4.4.7/../../../../avr32/lib/ucr3fp\libm.a(lib_a-sf_isnan.o)
 .debug_frame   0x00009350       0x34 d:/programmes/atmel/studio/7.0/toolchain/avr32/avr32-gnu-toolchain/bin/../lib/gcc/avr32/4.4.7/../../../../avr32/lib/ucr3fp\libm.a(lib_a-s_copysign.o)
 .debug_frame   0x00009384       0x34 d:/programmes/atmel/studio/7.0/toolchain/avr32/avr32-gnu-toolchain/bin/../lib/gcc/avr32/4.4.7/ucr3fp\libgcc.a(_floatdidf.o)
 .debug_frame   0x000093b8       0x44 d:/programmes/atmel/studio/7.0/toolchain/avr32/avr32-gnu-toolchain/bin/../lib/gcc/avr32/4.4.7/ucr3fp\libgcc.a(_divdi3.o)
 .debug_frame   0x000093fc       0x44 d:/programmes/atmel/studio/7.0/toolchain/avr32/avr32-gnu-toolchain/bin/../lib/gcc/avr32/4.4.7/ucr3fp\libgcc.a(_moddi3.o)
 .debug_frame   0x00009440       0x44 d:/programmes/atmel/studio/7.0/toolchain/avr32/avr32-gnu-toolchain/bin/../lib/gcc/avr32/4.4.7/ucr3fp\libgcc.a(_udivdi3.o)
 .debug_frame   0x00009484       0x44 d:/programmes/atmel/studio/7.0/toolchain/avr32/avr32-gnu-toolchain/bin/../lib/gcc/avr32/4.4.7/ucr3fp\libgcc.a(_umoddi3.o)
 .debug_frame   0x000094c8       0x20 d:/programmes/atmel/studio/7.0/toolchain/avr32/avr32-gnu-toolchain/bin/../lib/gcc/avr32/4.4.7/../../../../avr32/lib/ucr3fp\libc.a(lib_a-errno.o)
 .debug_frame   0x000094e8       0x40 d:/programmes/atmel/studio/7.0/toolchain/avr32/avr32-gnu-toolchain/bin/../lib/gcc/avr32/4.4.7/../../../../avr32/lib/ucr3fp\libc.a(lib_a-malloc.o)
 .debug_frame   0x00009528       0x40 d:/programmes/atmel/studio/7.0/toolchain/avr32/avr32-gnu-toolchain/bin/../lib/gcc/avr32/4.4.7/../../../../avr32/lib/ucr3fp\libc.a(lib_a-mallocr.o)
 .debug_frame   0x00009568       0x20 d:/programmes/atmel/studio/7.0/toolchain/avr32/avr32-gnu-toolchain/bin/../lib/gcc/avr32/4.4.7/../../../../avr32/lib/ucr3fp\libc.a(lib_a-memset.o)
 .debug_frame   0x00009588       0x30 d:/programmes/atmel/studio/7.0/toolchain/avr32/avr32-gnu-toolchain/bin/../lib/gcc/avr32/4.4.7/../../../../avr32/lib/ucr3fp\libc.a(lib_a-mlock.o)
 .debug_frame   0x000095b8       0x58 d:/programmes/atmel/studio/7.0/toolchain/avr32/avr32-gnu-toolchain/bin/../lib/gcc/avr32/4.4.7/../../../../avr32/lib/ucr3fp\libc.a(lib_a-rand.o)
 .debug_frame   0x00009610       0x34 d:/programmes/atmel/studio/7.0/toolchain/avr32/avr32-gnu-toolchain/bin/../lib/gcc/avr32/4.4.7/../../../../avr32/lib/ucr3fp\libc.a(lib_a-sbrkr.o)
 .debug_frame   0x00009644       0x60 d:/programmes/atmel/studio/7.0/toolchain/avr32/avr32-gnu-toolchain/bin/../lib/gcc/avr32/4.4.7/../../../../avr32/lib/ucr3fp\libc.a(lib_a-snprintf.o)
 .debug_frame   0x000096a4       0x20 d:/programmes/atmel/studio/7.0/toolchain/avr32/avr32-gnu-toolchain/bin/../lib/gcc/avr32/4.4.7/../../../../avr32/lib/ucr3fp\libc.a(lib_a-strcpy.o)
 .debug_frame   0x000096c4       0x20 d:/programmes/atmel/studio/7.0/toolchain/avr32/avr32-gnu-toolchain/bin/../lib/gcc/avr32/4.4.7/../../../../avr32/lib/ucr3fp\libc.a(lib_a-strlen.o)
 .debug_frame   0x000096e4      0x220 d:/programmes/atmel/studio/7.0/toolchain/avr32/avr32-gnu-toolchain/bin/../lib/gcc/avr32/4.4.7/../../../../avr32/lib/ucr3fp\libc.a(lib_a-syscalls.o)
 .debug_frame   0x00009904      0x258 d:/programmes/atmel/studio/7.0/toolchain/avr32/avr32-gnu-toolchain/bin/../lib/gcc/avr32/4.4.7/../../../../avr32/lib/ucr3fp\libc.a(lib_a-vfprintf.o)
 .debug_frame   0x00009b5c       0x34 d:/programmes/atmel/studio/7.0/toolchain/avr32/avr32-gnu-toolchain/bin/../lib/gcc/avr32/4.4.7/../../../../avr32/lib/ucr3fp\libc.a(lib_a-wsetup.o)
 .debug_frame   0x00009b90       0x78 d:/programmes/atmel/studio/7.0/toolchain/avr32/avr32-gnu-toolchain/bin/../lib/gcc/avr32/4.4.7/../../../../avr32/lib/ucr3fp\libc.a(lib_a-dtoa.o)
 .debug_frame   0x00009c08       0x4c d:/programmes/atmel/studio/7.0/toolchain/avr32/avr32-gnu-toolchain/bin/../lib/gcc/avr32/4.4.7/../../../../avr32/lib/ucr3fp\libc.a(lib_a-fflush.o)
 .debug_frame   0x00009c54      0x13c d:/programmes/atmel/studio/7.0/toolchain/avr32/avr32-gnu-toolchain/bin/../lib/gcc/avr32/4.4.7/../../../../avr32/lib/ucr3fp\libc.a(lib_a-findfp.o)
 .debug_frame   0x00009d90       0x58 d:/programmes/atmel/studio/7.0/toolchain/avr32/avr32-gnu-toolchain/bin/../lib/gcc/avr32/4.4.7/../../../../avr32/lib/ucr3fp\libc.a(lib_a-freer.o)
 .debug_frame   0x00009de8       0x44 d:/programmes/atmel/studio/7.0/toolchain/avr32/avr32-gnu-toolchain/bin/../lib/gcc/avr32/4.4.7/../../../../avr32/lib/ucr3fp\libc.a(lib_a-fvwrite.o)
 .debug_frame   0x00009e2c       0x70 d:/programmes/atmel/studio/7.0/toolchain/avr32/avr32-gnu-toolchain/bin/../lib/gcc/avr32/4.4.7/../../../../avr32/lib/ucr3fp\libc.a(lib_a-fwalk.o)
 .debug_frame   0x00009e9c       0x7c d:/programmes/atmel/studio/7.0/toolchain/avr32/avr32-gnu-toolchain/bin/../lib/gcc/avr32/4.4.7/../../../../avr32/lib/ucr3fp\libc.a(lib_a-locale.o)
 .debug_frame   0x00009f18       0x38 d:/programmes/atmel/studio/7.0/toolchain/avr32/avr32-gnu-toolchain/bin/../lib/gcc/avr32/4.4.7/../../../../avr32/lib/ucr3fp\libc.a(lib_a-makebuf.o)
 .debug_frame   0x00009f50       0x20 d:/programmes/atmel/studio/7.0/toolchain/avr32/avr32-gnu-toolchain/bin/../lib/gcc/avr32/4.4.7/../../../../avr32/lib/ucr3fp\libc.a(lib_a-memchr.o)
 .debug_frame   0x00009f70       0x28 d:/programmes/atmel/studio/7.0/toolchain/avr32/avr32-gnu-toolchain/bin/../lib/gcc/avr32/4.4.7/../../../../avr32/lib/ucr3fp\libc.a(lib_a-memmove.o)
 .debug_frame   0x00009f98      0x2b4 d:/programmes/atmel/studio/7.0/toolchain/avr32/avr32-gnu-toolchain/bin/../lib/gcc/avr32/4.4.7/../../../../avr32/lib/ucr3fp\libc.a(lib_a-mprec.o)
 .debug_frame   0x0000a24c       0x44 d:/programmes/atmel/studio/7.0/toolchain/avr32/avr32-gnu-toolchain/bin/../lib/gcc/avr32/4.4.7/../../../../avr32/lib/ucr3fp\libc.a(lib_a-reallocr.o)
 .debug_frame   0x0000a290       0x80 d:/programmes/atmel/studio/7.0/toolchain/avr32/avr32-gnu-toolchain/bin/../lib/gcc/avr32/4.4.7/../../../../avr32/lib/ucr3fp\libc.a(lib_a-reent.o)
 .debug_frame   0x0000a310       0x20 d:/programmes/atmel/studio/7.0/toolchain/avr32/avr32-gnu-toolchain/bin/../lib/gcc/avr32/4.4.7/../../../../avr32/lib/ucr3fp\libc.a(lib_a-s_isinfd.o)
 .debug_frame   0x0000a330       0x94 d:/programmes/atmel/studio/7.0/toolchain/avr32/avr32-gnu-toolchain/bin/../lib/gcc/avr32/4.4.7/../../../../avr32/lib/ucr3fp\libc.a(lib_a-stdio.o)
 .debug_frame   0x0000a3c4       0x34 d:/programmes/atmel/studio/7.0/toolchain/avr32/avr32-gnu-toolchain/bin/../lib/gcc/avr32/4.4.7/../../../../avr32/lib/ucr3fp\libc.a(lib_a-writer.o)
 .debug_frame   0x0000a3f8       0x34 d:/programmes/atmel/studio/7.0/toolchain/avr32/avr32-gnu-toolchain/bin/../lib/gcc/avr32/4.4.7/../../../../avr32/lib/ucr3fp\libc.a(lib_a-callocr.o)
 .debug_frame   0x0000a42c       0x34 d:/programmes/atmel/studio/7.0/toolchain/avr32/avr32-gnu-toolchain/bin/../lib/gcc/avr32/4.4.7/../../../../avr32/lib/ucr3fp\libc.a(lib_a-closer.o)
 .debug_frame   0x0000a460       0x4c d:/programmes/atmel/studio/7.0/toolchain/avr32/avr32-gnu-toolchain/bin/../lib/gcc/avr32/4.4.7/../../../../avr32/lib/ucr3fp\libc.a(lib_a-fclose.o)
 .debug_frame   0x0000a4ac       0x34 d:/programmes/atmel/studio/7.0/toolchain/avr32/avr32-gnu-toolchain/bin/../lib/gcc/avr32/4.4.7/../../../../avr32/lib/ucr3fp\libc.a(lib_a-fstatr.o)
 .debug_frame   0x0000a4e0       0x34 d:/programmes/atmel/studio/7.0/toolchain/avr32/avr32-gnu-toolchain/bin/../lib/gcc/avr32/4.4.7/../../../../avr32/lib/ucr3fp\libc.a(lib_a-lseekr.o)
 .debug_frame   0x0000a514       0x34 d:/programmes/atmel/studio/7.0/toolchain/avr32/avr32-gnu-toolchain/bin/../lib/gcc/avr32/4.4.7/../../../../avr32/lib/ucr3fp\libc.a(lib_a-readr.o)

.debug_str      0x00000000    0x1a296
 *(.debug_str)
 .debug_str     0x00000000      0x84c Library/communication/console.o
                                0x985 (size before relaxing)
 .debug_str     0x0000084c      0xc5e Library/communication/data_logging.o
                               0x153a (size before relaxing)
 .debug_str     0x000014aa      0xd47 Library/communication/data_logging_telemetry.o
                               0x1ebe (size before relaxing)
 .debug_str     0x000021f1      0x8f7 Library/communication/hud_telemetry.o
                               0x18d8 (size before relaxing)
 .debug_str     0x00002ae8      0x738 Library/communication/mavlink_communication.o
                               0x12a5 (size before relaxing)
 .debug_str     0x00003220      0x339 Library/communication/mavlink_message_handler.o
                               0x13c5 (size before relaxing)
 .debug_str     0x00003559     0x123b Library/communication/mavlink_waypoint_handler.o
                               0x3b06 (size before relaxing)
 .debug_str     0x00004794      0x565 Library/communication/remote.o
                               0x1081 (size before relaxing)
 .debug_str     0x00004cf9      0x1b8 Library/communication/remote_telemetry.o
                               0x1cc7 (size before relaxing)
 .debug_str     0x00004eb1       0x55 Library/communication/state.o
                                0x54d (size before relaxing)
 .debug_str     0x00004f06      0x44c Library/communication/state_machine.o
                               0x1a1c (size before relaxing)
 .debug_str     0x00005352      0x36d Library/communication/state_telemetry.o
                               0x17ce (size before relaxing)
 .debug_str     0x000056bf      0x128 Library/control/adaptive_parameter.o
                                0x242 (size before relaxing)
 .debug_str     0x000057e7      0x13f Library/control/altitude_controller.o
                                0x266 (size before relaxing)
 .debug_str     0x00005926      0x260 Library/control/attitude_controller.o
                                0x483 (size before relaxing)
 .debug_str     0x00005b86       0xbc Library/control/attitude_controller_p2.o
                                0x2ef (size before relaxing)
 .debug_str     0x00005c42      0x138 Library/control/attitude_error_estimator.o
                                0x2d6 (size before relaxing)
 .debug_str     0x00005d7a      0x466 Library/control/joystick_parsing.o
                                0xbaa (size before relaxing)
 .debug_str     0x000061e0      0x1f6 Library/control/joystick_parsing_telemetry.o
                               0x11ae (size before relaxing)
 .debug_str     0x000063d6      0x15b Library/control/pid_controller.o
                                0x32f (size before relaxing)
 .debug_str     0x00006531      0x145 Library/control/servos_mix_quadcopter_cross.o
                                0x2da (size before relaxing)
 .debug_str     0x00006676      0x146 Library/control/servos_mix_quadcopter_diag.o
                                0x301 (size before relaxing)
 .debug_str     0x000067bc      0x391 Library/control/stabilisation_copter.o
                               0x2807 (size before relaxing)
 .debug_str     0x00006b4d      0x22d Library/control/stabilisation_telemetry.o
                                0x915 (size before relaxing)
 .debug_str     0x00006d7a      0x231 Library/control/vector_field_waypoint.o
                               0x2640 (size before relaxing)
 .debug_str     0x00006fab      0x16b Library/control/velocity_controller_copter.o
                               0x17f6 (size before relaxing)
 .debug_str     0x00007116       0x71 Library/hal/analog_monitor_telemetry.o
                                0x6a2 (size before relaxing)
 .debug_str     0x00007187       0x9e Library/hal/analog_monitor.o
                                0x28f (size before relaxing)
 .debug_str     0x00007225       0x7e Library/hal/bmp085_telemetry.o
                                0x66b (size before relaxing)
 .debug_str     0x000072a3       0xee Library/hal/fat_fs/diskio.o
                                0x217 (size before relaxing)
 .debug_str     0x00007391      0x322 Library/hal/fat_fs/ff.o
                                0x636 (size before relaxing)
 .debug_str     0x000076b3       0x66 Library/hal/fat_fs/option/ccsbcs.o
                                 0xd5 (size before relaxing)
 .debug_str     0x00007719       0x4b Library/hal/fat_fs/option/syscall.o
                                0x10e (size before relaxing)
 .debug_str     0x00007764      0xba9 Library/hal/gps_ublox.o
                               0x17b6 (size before relaxing)
 .debug_str     0x0000830d       0x72 Library/hal/gps_ublox_telemetry.o
                                0x956 (size before relaxing)
 .debug_str     0x0000837f      0x452 Library/hal/hmc5883l.o
                                0x5a9 (size before relaxing)
 .debug_str     0x000087d1      0x243 Library/hal/i2c_driver_int.o
                                0x639 (size before relaxing)
 .debug_str     0x00008a14      0x28c Library/hal/lsm330dlc.o
                                0x6a2 (size before relaxing)
 .debug_str     0x00008ca0      0x16c Library/hal/piezo_speaker.o
                                0x265 (size before relaxing)
 .debug_str     0x00008e0c      0x98d Library/hal/pwm_servos.o
                                0xb9c (size before relaxing)
 .debug_str     0x00009799      0x7cf Library/hal/sd_spi.o
                                0xa27 (size before relaxing)
 .debug_str     0x00009f68       0x68 Library/hal/servos.o
                                0x1b2 (size before relaxing)
 .debug_str     0x00009fd0       0xba Library/hal/servos_telemetry.o
                                0x623 (size before relaxing)
 .debug_str     0x0000a08a      0x142 Library/hal/sonar_i2cxl.o
                                0x4d0 (size before relaxing)
 .debug_str     0x0000a1cc       0xc1 Library/hal/sonar_telemetry.o
                                0x647 (size before relaxing)
 .debug_str     0x0000a28d      0x1e1 Library/hal/spektrum_satellite.o
                                0xb06 (size before relaxing)
 .debug_str     0x0000a46e      0x2a9 Library/hal/time_keeper.o
                                0x3ff (size before relaxing)
 .debug_str     0x0000a717       0xaa Library/hal/usb_int.o
                                0x224 (size before relaxing)
 .debug_str     0x0000a7c1       0x85 Library/hal/xbee.o
                                0x875 (size before relaxing)
 .debug_str     0x0000a846       0x55 Library/runtime/scheduler_telemetry.o
                                0x84c (size before relaxing)
 .debug_str     0x0000a89b       0x32 Library/sensing/ahrs.o
                                0x172 (size before relaxing)
 .debug_str     0x0000a8cd       0xc6 Library/sensing/ahrs_telemetry.o
                                0x64a (size before relaxing)
 .debug_str     0x0000a993       0x8e Library/sensing/altitude_estimation.o
                                0x338 (size before relaxing)
 .debug_str     0x0000aa21       0xec Library/sensing/imu_telemetry.o
                               0x168b (size before relaxing)
 .debug_str     0x0000ab0d      0x1d4 Library/sensing/position_estimation.o
                               0x15a6 (size before relaxing)
 .debug_str     0x0000ace1      0x12d Library/sensing/position_estimation_telemetry.o
                               0x237d (size before relaxing)
 .debug_str     0x0000ae0e      0x132 Library/sensing/qfilter.o
                                0x8b7 (size before relaxing)
 .debug_str     0x0000af40      0x126 Library/sensing/simulation_telemetry.o
                               0x265f (size before relaxing)
 .debug_str     0x0000b066      0x126 Library/util/linear_algebra.o
                                0x20c (size before relaxing)
 .debug_str     0x0000b18c       0xc5 Library/util/matrixlib_float.o
                                0x1b4 (size before relaxing)
 .debug_str     0x0000b251      0x12a Library/util/quick_trig.o
                                0x240 (size before relaxing)
 .debug_str     0x0000b37b      0x884 src/central_data.o
                               0x3e3f (size before relaxing)
 .debug_str     0x0000bbff       0xb5 src/mavlink_telemetry.o
                               0x3361 (size before relaxing)
 .debug_str     0x0000bcb4       0xbe src/tasks.o
                               0x335f (size before relaxing)
 .debug_str     0x0000bd72      0x13f Library/communication/mavlink_stream.o
                                0x5ec (size before relaxing)
 .debug_str     0x0000beb1      0x52e Library/communication/onboard_parameters.o
                               0x1bc5 (size before relaxing)
 .debug_str     0x0000c3df      0x40c Library/control/navigation.o
                               0x339f (size before relaxing)
 .debug_str     0x0000c7eb       0x48 Library/control/stabilisation.o
                                0x304 (size before relaxing)
 .debug_str     0x0000c833      0x91e Library/hal/adc_int.o
                                0xb8d (size before relaxing)
 .debug_str     0x0000d151      0x9c3 Library/hal/ads1274.o
                                0xee7 (size before relaxing)
 .debug_str     0x0000db14       0xc4 Library/hal/bmp085.o
                                0x5bb (size before relaxing)
 .debug_str     0x0000dbd8      0x729 Library/hal/dac_dma.o
                                0x9f9 (size before relaxing)
 .debug_str     0x0000e301      0x339 Library/hal/led.o
                                0x48e (size before relaxing)
 .debug_str     0x0000e63a      0x493 Library/hal/spi_buffered.o
                                0xaec (size before relaxing)
 .debug_str     0x0000eacd      0x197 Library/hal/uart_int.o
                                0xa4c (size before relaxing)
 .debug_str     0x0000ec64      0x190 Library/runtime/scheduler.o
                                0x51a (size before relaxing)
 .debug_str     0x0000edf4       0x67 Library/sensing/imu.o
                                0x716 (size before relaxing)
 .debug_str     0x0000ee5b      0x22d Library/sensing/simulation.o
                               0x18f4 (size before relaxing)
 .debug_str     0x0000f088       0xba Library/util/buffer.o
                                0x22f (size before relaxing)
 .debug_str     0x0000f142       0xe7 Library/util/coord_conventions.o
                                0x27e (size before relaxing)
 .debug_str     0x0000f229       0xd3 Library/util/generator.o
                                0x1d7 (size before relaxing)
 .debug_str     0x0000f2fc      0x209 Library/util/print_util.o
                                0x3a3 (size before relaxing)
 .debug_str     0x0000f505       0x22 Library/util/sinus.o
                                 0xfc (size before relaxing)
 .debug_str     0x0000f527      0x253 src/asf/avr32/drivers/adcifa/adcifa.o
                                0xa77 (size before relaxing)
 .debug_str     0x0000f77a      0x203 src/asf/avr32/drivers/ast/ast.o
                                0x502 (size before relaxing)
 .debug_str     0x0000f97d      0x166 src/asf/avr32/drivers/dacifb/dacifb.o
                                0x594 (size before relaxing)
 .debug_str     0x0000fae3      0x19c src/asf/avr32/drivers/eic/eic.o
                                0x48f (size before relaxing)
 .debug_str     0x0000fc7f      0xa7c src/asf/avr32/drivers/flashc/flashc.o
                                0xc62 (size before relaxing)
 .debug_str     0x000106fb      0x35e src/asf/avr32/drivers/gpio/gpio.o
                                0x6c4 (size before relaxing)
 .debug_str     0x00010a59      0x646 src/asf/avr32/drivers/intc/intc.o
                                0x72b (size before relaxing)
 .debug_str     0x0001109f      0x254 src/asf/avr32/drivers/pdca/pdca.o
                                0x5ef (size before relaxing)
 .debug_str     0x000112f3      0x2a0 src/asf/avr32/drivers/pevc/pevc.o
                                0x525 (size before relaxing)
 .debug_str     0x00011593      0x5de src/asf/avr32/drivers/pm/pm_uc3c.o
                                0x783 (size before relaxing)
 .debug_str     0x00011b71      0x26e src/asf/avr32/drivers/pm/power_clocks_lib.o
                                0x60a (size before relaxing)
 .debug_str     0x00011ddf      0x476 src/asf/avr32/drivers/pwm/pwm4.o
                                0xeb1 (size before relaxing)
 .debug_str     0x00012255      0x50d src/asf/avr32/drivers/scif/scif_uc3c.o
                                0xc1c (size before relaxing)
 .debug_str     0x00012762      0x18f src/asf/avr32/drivers/spi/spi.o
                                0x643 (size before relaxing)
 .debug_str     0x000128f1      0x15b src/asf/avr32/drivers/tc/tc.o
                                0x4b8 (size before relaxing)
 .debug_str     0x00012a4c      0x26e src/asf/avr32/drivers/twim/twim.o
                                0x6df (size before relaxing)
 .debug_str     0x00012cba      0x398 src/asf/avr32/drivers/usart/usart.o
                                0xad0 (size before relaxing)
 .debug_str     0x00013052     0x294d src/asf/avr32/drivers/usbc/usbc_device.o
                               0x2f91 (size before relaxing)
 .debug_str     0x0001599f       0x56 src/asf/avr32/services/delay/delay.o
                                0x1c2 (size before relaxing)
 .debug_str     0x000159f5       0x36 src/asf/common/boards/user_board/init.o
                                0x107 (size before relaxing)
 .debug_str     0x00015a2b       0xde src/asf/common/services/clock/uc3c/osc.o
                                0x65e (size before relaxing)
 .debug_str     0x00015b09       0x4f src/asf/common/services/clock/uc3c/pll.o
                                0x5d5 (size before relaxing)
 .debug_str     0x00015b58      0x1c8 src/asf/common/services/clock/uc3c/sysclk.o
                                0xc49 (size before relaxing)
 .debug_str     0x00015d20       0x33 src/asf/common/services/sleepmgr/uc3/sleepmgr.o
                                0x1ab (size before relaxing)
 .debug_str     0x00015d53      0x16c src/asf/common/services/spi/uc3_spi/spi_master.o
                                0x6ad (size before relaxing)
 .debug_str     0x00015ebf      0x5b7 src/asf/common/services/usb/class/cdc/device/udi_cdc.o
                                0x801 (size before relaxing)
 .debug_str     0x00016476      0x48a src/asf/common/services/usb/class/cdc/device/udi_cdc_desc.o
                                0x65e (size before relaxing)
 .debug_str     0x00016900      0x64a src/asf/common/services/usb/udc/udc.o
                                0xafe (size before relaxing)
 .debug_str     0x00016f4a       0x2c src/asf/common/utils/stdio/read.o
                                0x11b (size before relaxing)
 .debug_str     0x00016f76       0xfd src/asf/common/utils/stdio/stdio_usb/stdio_usb.o
                                0x1f4 (size before relaxing)
 .debug_str     0x00017073       0x26 src/asf/common/utils/stdio/write.o
                                0x11d (size before relaxing)
 .debug_str     0x00017099      0x11c src/boardsupport.o
                               0x3610 (size before relaxing)
 .debug_str     0x000171b5       0x7c src/main.o
                               0x2b50 (size before relaxing)
 .debug_str     0x00017231       0xa2 d:/programmes/atmel/studio/7.0/toolchain/avr32/avr32-gnu-toolchain/bin/../lib/gcc/avr32/4.4.7/../../../../avr32/lib/ucr3fp\libm.a(lib_a-s_cos.o)
                                0x156 (size before relaxing)
 .debug_str     0x000172d3       0x7c d:/programmes/atmel/studio/7.0/toolchain/avr32/avr32-gnu-toolchain/bin/../lib/gcc/avr32/4.4.7/../../../../avr32/lib/ucr3fp\libm.a(lib_a-s_floor.o)
                                0x168 (size before relaxing)
 .debug_str     0x0001734f       0x6b d:/programmes/atmel/studio/7.0/toolchain/avr32/avr32-gnu-toolchain/bin/../lib/gcc/avr32/4.4.7/../../../../avr32/lib/ucr3fp\libm.a(lib_a-s_sin.o)
                                0x156 (size before relaxing)
 .debug_str     0x000173ba       0xdb d:/programmes/atmel/studio/7.0/toolchain/avr32/avr32-gnu-toolchain/bin/../lib/gcc/avr32/4.4.7/../../../../avr32/lib/ucr3fp\libm.a(lib_a-w_asin.o)
                                0x19f (size before relaxing)
 .debug_str     0x00017495       0x6d d:/programmes/atmel/studio/7.0/toolchain/avr32/avr32-gnu-toolchain/bin/../lib/gcc/avr32/4.4.7/../../../../avr32/lib/ucr3fp\libm.a(lib_a-w_atan2.o)
                                0x121 (size before relaxing)
 .debug_str     0x00017502       0x6c d:/programmes/atmel/studio/7.0/toolchain/avr32/avr32-gnu-toolchain/bin/../lib/gcc/avr32/4.4.7/../../../../avr32/lib/ucr3fp\libm.a(lib_a-w_fmod.o)
                                0x19f (size before relaxing)
 .debug_str     0x0001756e       0x6b d:/programmes/atmel/studio/7.0/toolchain/avr32/avr32-gnu-toolchain/bin/../lib/gcc/avr32/4.4.7/../../../../avr32/lib/ucr3fp\libm.a(lib_a-w_pow.o)
                                0x199 (size before relaxing)
 .debug_str     0x000175d9       0x6c d:/programmes/atmel/studio/7.0/toolchain/avr32/avr32-gnu-toolchain/bin/../lib/gcc/avr32/4.4.7/../../../../avr32/lib/ucr3fp\libm.a(lib_a-w_sqrt.o)
                                0x19f (size before relaxing)
 .debug_str     0x00017645       0x6d d:/programmes/atmel/studio/7.0/toolchain/avr32/avr32-gnu-toolchain/bin/../lib/gcc/avr32/4.4.7/../../../../avr32/lib/ucr3fp\libm.a(lib_a-wf_sqrt.o)
                                0x1a1 (size before relaxing)
 .debug_str     0x000176b2       0x98 d:/programmes/atmel/studio/7.0/toolchain/avr32/avr32-gnu-toolchain/bin/../lib/gcc/avr32/4.4.7/../../../../avr32/lib/ucr3fp\libm.a(lib_a-e_asin.o)
                                0x188 (size before relaxing)
 .debug_str     0x0001774a       0x9b d:/programmes/atmel/studio/7.0/toolchain/avr32/avr32-gnu-toolchain/bin/../lib/gcc/avr32/4.4.7/../../../../avr32/lib/ucr3fp\libm.a(lib_a-e_atan2.o)
                                0x18b (size before relaxing)
 .debug_str     0x000177e5       0x80 d:/programmes/atmel/studio/7.0/toolchain/avr32/avr32-gnu-toolchain/bin/../lib/gcc/avr32/4.4.7/../../../../avr32/lib/ucr3fp\libm.a(lib_a-e_fmod.o)
                                0x170 (size before relaxing)
 .debug_str     0x00017865       0xbc d:/programmes/atmel/studio/7.0/toolchain/avr32/avr32-gnu-toolchain/bin/../lib/gcc/avr32/4.4.7/../../../../avr32/lib/ucr3fp\libm.a(lib_a-e_pow.o)
                                0x1c5 (size before relaxing)
 .debug_str     0x00017921       0xd8 d:/programmes/atmel/studio/7.0/toolchain/avr32/avr32-gnu-toolchain/bin/../lib/gcc/avr32/4.4.7/../../../../avr32/lib/ucr3fp\libm.a(lib_a-e_rem_pio2.o)
                                0x1d2 (size before relaxing)
 .debug_str     0x000179f9       0x7b d:/programmes/atmel/studio/7.0/toolchain/avr32/avr32-gnu-toolchain/bin/../lib/gcc/avr32/4.4.7/../../../../avr32/lib/ucr3fp\libm.a(lib_a-e_sqrt.o)
                                0x175 (size before relaxing)
 .debug_str     0x00017a74       0x7d d:/programmes/atmel/studio/7.0/toolchain/avr32/avr32-gnu-toolchain/bin/../lib/gcc/avr32/4.4.7/../../../../avr32/lib/ucr3fp\libm.a(lib_a-ef_sqrt.o)
                                0x14a (size before relaxing)
 .debug_str     0x00017af1       0x78 d:/programmes/atmel/studio/7.0/toolchain/avr32/avr32-gnu-toolchain/bin/../lib/gcc/avr32/4.4.7/../../../../avr32/lib/ucr3fp\libm.a(lib_a-k_cos.o)
                                0x168 (size before relaxing)
 .debug_str     0x00017b69       0xac d:/programmes/atmel/studio/7.0/toolchain/avr32/avr32-gnu-toolchain/bin/../lib/gcc/avr32/4.4.7/../../../../avr32/lib/ucr3fp\libm.a(lib_a-k_rem_pio2.o)
                                0x174 (size before relaxing)
 .debug_str     0x00017c15       0x78 d:/programmes/atmel/studio/7.0/toolchain/avr32/avr32-gnu-toolchain/bin/../lib/gcc/avr32/4.4.7/../../../../avr32/lib/ucr3fp\libm.a(lib_a-k_sin.o)
                                0x135 (size before relaxing)
 .debug_str     0x00017c8d       0x7a d:/programmes/atmel/studio/7.0/toolchain/avr32/avr32-gnu-toolchain/bin/../lib/gcc/avr32/4.4.7/../../../../avr32/lib/ucr3fp\libm.a(lib_a-s_atan.o)
                                0x16f (size before relaxing)
 .debug_str     0x00017d07       0x71 d:/programmes/atmel/studio/7.0/toolchain/avr32/avr32-gnu-toolchain/bin/../lib/gcc/avr32/4.4.7/../../../../avr32/lib/ucr3fp\libm.a(lib_a-s_fabs.o)
                                0x157 (size before relaxing)
 .debug_str     0x00017d78       0x77 d:/programmes/atmel/studio/7.0/toolchain/avr32/avr32-gnu-toolchain/bin/../lib/gcc/avr32/4.4.7/../../../../avr32/lib/ucr3fp\libm.a(lib_a-s_finite.o)
                                0x162 (size before relaxing)
 .debug_str     0x00017def       0x79 d:/programmes/atmel/studio/7.0/toolchain/avr32/avr32-gnu-toolchain/bin/../lib/gcc/avr32/4.4.7/../../../../avr32/lib/ucr3fp\libm.a(lib_a-s_isnand.o)
                                0x164 (size before relaxing)
 .debug_str     0x00017e68       0x71 d:/programmes/atmel/studio/7.0/toolchain/avr32/avr32-gnu-toolchain/bin/../lib/gcc/avr32/4.4.7/../../../../avr32/lib/ucr3fp\libm.a(lib_a-s_lib_ver.o)
                                0x17a (size before relaxing)
 .debug_str     0x00017ed9       0x79 d:/programmes/atmel/studio/7.0/toolchain/avr32/avr32-gnu-toolchain/bin/../lib/gcc/avr32/4.4.7/../../../../avr32/lib/ucr3fp\libm.a(lib_a-s_matherr.o)
                                0x14c (size before relaxing)
 .debug_str     0x00017f52       0x74 d:/programmes/atmel/studio/7.0/toolchain/avr32/avr32-gnu-toolchain/bin/../lib/gcc/avr32/4.4.7/../../../../avr32/lib/ucr3fp\libm.a(lib_a-s_nan.o)
                                0x122 (size before relaxing)
 .debug_str     0x00017fc6       0x74 d:/programmes/atmel/studio/7.0/toolchain/avr32/avr32-gnu-toolchain/bin/../lib/gcc/avr32/4.4.7/../../../../avr32/lib/ucr3fp\libm.a(lib_a-s_rint.o)
                                0x169 (size before relaxing)
 .debug_str     0x0001803a       0x84 d:/programmes/atmel/studio/7.0/toolchain/avr32/avr32-gnu-toolchain/bin/../lib/gcc/avr32/4.4.7/../../../../avr32/lib/ucr3fp\libm.a(lib_a-s_scalbn.o)
                                0x183 (size before relaxing)
 .debug_str     0x000180be       0x92 d:/programmes/atmel/studio/7.0/toolchain/avr32/avr32-gnu-toolchain/bin/../lib/gcc/avr32/4.4.7/../../../../avr32/lib/ucr3fp\libm.a(lib_a-sf_isnan.o)
                                0x160 (size before relaxing)
 .debug_str     0x00018150       0x7b d:/programmes/atmel/studio/7.0/toolchain/avr32/avr32-gnu-toolchain/bin/../lib/gcc/avr32/4.4.7/../../../../avr32/lib/ucr3fp\libm.a(lib_a-s_copysign.o)
                                0x15c (size before relaxing)
 .debug_str     0x000181cb      0x111 d:/programmes/atmel/studio/7.0/toolchain/avr32/avr32-gnu-toolchain/bin/../lib/gcc/avr32/4.4.7/ucr3fp\libgcc.a(_floatdidf.o)
                                0x1ba (size before relaxing)
 .debug_str     0x000182dc       0x55 d:/programmes/atmel/studio/7.0/toolchain/avr32/avr32-gnu-toolchain/bin/../lib/gcc/avr32/4.4.7/ucr3fp\libgcc.a(_divdi3.o)
                                0x208 (size before relaxing)
 .debug_str     0x00018331        0x9 d:/programmes/atmel/studio/7.0/toolchain/avr32/avr32-gnu-toolchain/bin/../lib/gcc/avr32/4.4.7/ucr3fp\libgcc.a(_moddi3.o)
                                0x208 (size before relaxing)
 .debug_str     0x0001833a        0xa d:/programmes/atmel/studio/7.0/toolchain/avr32/avr32-gnu-toolchain/bin/../lib/gcc/avr32/4.4.7/ucr3fp\libgcc.a(_udivdi3.o)
                                0x209 (size before relaxing)
 .debug_str     0x00018344        0xa d:/programmes/atmel/studio/7.0/toolchain/avr32/avr32-gnu-toolchain/bin/../lib/gcc/avr32/4.4.7/ucr3fp\libgcc.a(_umoddi3.o)
                                0x209 (size before relaxing)
 .debug_str     0x0001834e      0x369 d:/programmes/atmel/studio/7.0/toolchain/avr32/avr32-gnu-toolchain/bin/../lib/gcc/avr32/4.4.7/../../../../avr32/lib/ucr3fp\libc.a(lib_a-errno.o)
                                0x4ab (size before relaxing)
 .debug_str     0x000186b7       0xcb d:/programmes/atmel/studio/7.0/toolchain/avr32/avr32-gnu-toolchain/bin/../lib/gcc/avr32/4.4.7/../../../../avr32/lib/ucr3fp\libc.a(lib_a-impure.o)
                                0x502 (size before relaxing)
 .debug_str     0x00018782       0x73 d:/programmes/atmel/studio/7.0/toolchain/avr32/avr32-gnu-toolchain/bin/../lib/gcc/avr32/4.4.7/../../../../avr32/lib/ucr3fp\libc.a(lib_a-malloc.o)
                                0x4c4 (size before relaxing)
 .debug_str     0x000187f5      0x22a d:/programmes/atmel/studio/7.0/toolchain/avr32/avr32-gnu-toolchain/bin/../lib/gcc/avr32/4.4.7/../../../../avr32/lib/ucr3fp\libc.a(lib_a-mallocr.o)
                                0x699 (size before relaxing)
 .debug_str     0x00018a1f       0x75 d:/programmes/atmel/studio/7.0/toolchain/avr32/avr32-gnu-toolchain/bin/../lib/gcc/avr32/4.4.7/../../../../avr32/lib/ucr3fp\libc.a(lib_a-memset.o)
                                0x111 (size before relaxing)
 .debug_str     0x00018a94       0xa0 d:/programmes/atmel/studio/7.0/toolchain/avr32/avr32-gnu-toolchain/bin/../lib/gcc/avr32/4.4.7/../../../../avr32/lib/ucr3fp\libc.a(lib_a-mlock.o)
                                0x4cb (size before relaxing)
 .debug_str     0x00018b34       0x72 d:/programmes/atmel/studio/7.0/toolchain/avr32/avr32-gnu-toolchain/bin/../lib/gcc/avr32/4.4.7/../../../../avr32/lib/ucr3fp\libc.a(lib_a-rand.o)
                                0x4b3 (size before relaxing)
 .debug_str     0x00018ba6       0x83 d:/programmes/atmel/studio/7.0/toolchain/avr32/avr32-gnu-toolchain/bin/../lib/gcc/avr32/4.4.7/../../../../avr32/lib/ucr3fp\libc.a(lib_a-sbrkr.o)
                                0x4b4 (size before relaxing)
 .debug_str     0x00018c29       0x84 d:/programmes/atmel/studio/7.0/toolchain/avr32/avr32-gnu-toolchain/bin/../lib/gcc/avr32/4.4.7/../../../../avr32/lib/ucr3fp\libc.a(lib_a-snprintf.o)
                                0x4f5 (size before relaxing)
 .debug_str     0x00018cad       0x7f d:/programmes/atmel/studio/7.0/toolchain/avr32/avr32-gnu-toolchain/bin/../lib/gcc/avr32/4.4.7/../../../../avr32/lib/ucr3fp\libc.a(lib_a-strcpy.o)
                                0x114 (size before relaxing)
 .debug_str     0x00018d2c       0x75 d:/programmes/atmel/studio/7.0/toolchain/avr32/avr32-gnu-toolchain/bin/../lib/gcc/avr32/4.4.7/../../../../avr32/lib/ucr3fp\libc.a(lib_a-strlen.o)
                                0x117 (size before relaxing)
 .debug_str     0x00018da1      0x2ef d:/programmes/atmel/studio/7.0/toolchain/avr32/avr32-gnu-toolchain/bin/../lib/gcc/avr32/4.4.7/../../../../avr32/lib/ucr3fp\libc.a(lib_a-syscalls.o)
                                0x43d (size before relaxing)
 .debug_str     0x00019090      0x3d1 d:/programmes/atmel/studio/7.0/toolchain/avr32/avr32-gnu-toolchain/bin/../lib/gcc/avr32/4.4.7/../../../../avr32/lib/ucr3fp\libc.a(lib_a-vfprintf.o)
                                0x999 (size before relaxing)
 .debug_str     0x00019461       0x79 d:/programmes/atmel/studio/7.0/toolchain/avr32/avr32-gnu-toolchain/bin/../lib/gcc/avr32/4.4.7/../../../../avr32/lib/ucr3fp\libc.a(lib_a-wsetup.o)
                                0x4f4 (size before relaxing)
 .debug_str     0x000194da      0x12f d:/programmes/atmel/studio/7.0/toolchain/avr32/avr32-gnu-toolchain/bin/../lib/gcc/avr32/4.4.7/../../../../avr32/lib/ucr3fp\libc.a(lib_a-dtoa.o)
                                0x5a9 (size before relaxing)
 .debug_str     0x00019609       0x85 d:/programmes/atmel/studio/7.0/toolchain/avr32/avr32-gnu-toolchain/bin/../lib/gcc/avr32/4.4.7/../../../../avr32/lib/ucr3fp\libc.a(lib_a-fflush.o)
                                0x51a (size before relaxing)
 .debug_str     0x0001968e      0x135 d:/programmes/atmel/studio/7.0/toolchain/avr32/avr32-gnu-toolchain/bin/../lib/gcc/avr32/4.4.7/../../../../avr32/lib/ucr3fp\libc.a(lib_a-findfp.o)
                                0x5dc (size before relaxing)
 .debug_str     0x000197c3       0x36 d:/programmes/atmel/studio/7.0/toolchain/avr32/avr32-gnu-toolchain/bin/../lib/gcc/avr32/4.4.7/../../../../avr32/lib/ucr3fp\libc.a(lib_a-freer.o)
                                0x5eb (size before relaxing)
 .debug_str     0x000197f9       0x99 d:/programmes/atmel/studio/7.0/toolchain/avr32/avr32-gnu-toolchain/bin/../lib/gcc/avr32/4.4.7/../../../../avr32/lib/ucr3fp\libc.a(lib_a-fvwrite.o)
                                0x50c (size before relaxing)
 .debug_str     0x00019892       0x91 d:/programmes/atmel/studio/7.0/toolchain/avr32/avr32-gnu-toolchain/bin/../lib/gcc/avr32/4.4.7/../../../../avr32/lib/ucr3fp\libc.a(lib_a-fwalk.o)
                                0x4de (size before relaxing)
 .debug_str     0x00019923      0x1cc d:/programmes/atmel/studio/7.0/toolchain/avr32/avr32-gnu-toolchain/bin/../lib/gcc/avr32/4.4.7/../../../../avr32/lib/ucr3fp\libc.a(lib_a-locale.o)
                                0x651 (size before relaxing)
 .debug_str     0x00019aef       0x86 d:/programmes/atmel/studio/7.0/toolchain/avr32/avr32-gnu-toolchain/bin/../lib/gcc/avr32/4.4.7/../../../../avr32/lib/ucr3fp\libc.a(lib_a-makebuf.o)
                                0x5af (size before relaxing)
 .debug_str     0x00019b75       0x7e d:/programmes/atmel/studio/7.0/toolchain/avr32/avr32-gnu-toolchain/bin/../lib/gcc/avr32/4.4.7/../../../../avr32/lib/ucr3fp\libc.a(lib_a-memchr.o)
                                0x121 (size before relaxing)
 .debug_str     0x00019bf3       0x80 d:/programmes/atmel/studio/7.0/toolchain/avr32/avr32-gnu-toolchain/bin/../lib/gcc/avr32/4.4.7/../../../../avr32/lib/ucr3fp\libc.a(lib_a-memmove.o)
                                0x12c (size before relaxing)
 .debug_str     0x00019c73      0x12b d:/programmes/atmel/studio/7.0/toolchain/avr32/avr32-gnu-toolchain/bin/../lib/gcc/avr32/4.4.7/../../../../avr32/lib/ucr3fp\libc.a(lib_a-mprec.o)
                                0x5b6 (size before relaxing)
 .debug_str     0x00019d9e       0x59 d:/programmes/atmel/studio/7.0/toolchain/avr32/avr32-gnu-toolchain/bin/../lib/gcc/avr32/4.4.7/../../../../avr32/lib/ucr3fp\libc.a(lib_a-reallocr.o)
                                0x56b (size before relaxing)
 .debug_str     0x00019df7       0xa6 d:/programmes/atmel/studio/7.0/toolchain/avr32/avr32-gnu-toolchain/bin/../lib/gcc/avr32/4.4.7/../../../../avr32/lib/ucr3fp\libc.a(lib_a-reent.o)
                                0x4e8 (size before relaxing)
 .debug_str     0x00019e9d       0x79 d:/programmes/atmel/studio/7.0/toolchain/avr32/avr32-gnu-toolchain/bin/../lib/gcc/avr32/4.4.7/../../../../avr32/lib/ucr3fp\libc.a(lib_a-s_isinfd.o)
                                0x164 (size before relaxing)
 .debug_str     0x00019f16       0x8e d:/programmes/atmel/studio/7.0/toolchain/avr32/avr32-gnu-toolchain/bin/../lib/gcc/avr32/4.4.7/../../../../avr32/lib/ucr3fp\libc.a(lib_a-stdio.o)
                                0x4da (size before relaxing)
 .debug_str     0x00019fa4       0x7f d:/programmes/atmel/studio/7.0/toolchain/avr32/avr32-gnu-toolchain/bin/../lib/gcc/avr32/4.4.7/../../../../avr32/lib/ucr3fp\libc.a(lib_a-writer.o)
                                0x4b7 (size before relaxing)
 .debug_str     0x0001a023       0x19 d:/programmes/atmel/studio/7.0/toolchain/avr32/avr32-gnu-toolchain/bin/../lib/gcc/avr32/4.4.7/../../../../avr32/lib/ucr3fp\libc.a(lib_a-callocr.o)
                                0x4ea (size before relaxing)
 .debug_str     0x0001a03c       0x76 d:/programmes/atmel/studio/7.0/toolchain/avr32/avr32-gnu-toolchain/bin/../lib/gcc/avr32/4.4.7/../../../../avr32/lib/ucr3fp\libc.a(lib_a-closer.o)
                                0x4a7 (size before relaxing)
 .debug_str     0x0001a0b2       0x7e d:/programmes/atmel/studio/7.0/toolchain/avr32/avr32-gnu-toolchain/bin/../lib/gcc/avr32/4.4.7/../../../../avr32/lib/ucr3fp\libc.a(lib_a-fclose.o)
                                0x4fe (size before relaxing)
 .debug_str     0x0001a130       0x7c d:/programmes/atmel/studio/7.0/toolchain/avr32/avr32-gnu-toolchain/bin/../lib/gcc/avr32/4.4.7/../../../../avr32/lib/ucr3fp\libc.a(lib_a-fstatr.o)
                                0x59a (size before relaxing)
 .debug_str     0x0001a1ac       0x76 d:/programmes/atmel/studio/7.0/toolchain/avr32/avr32-gnu-toolchain/bin/../lib/gcc/avr32/4.4.7/../../../../avr32/lib/ucr3fp\libc.a(lib_a-lseekr.o)
                                0x4b5 (size before relaxing)
 .debug_str     0x0001a222       0x74 d:/programmes/atmel/studio/7.0/toolchain/avr32/avr32-gnu-toolchain/bin/../lib/gcc/avr32/4.4.7/../../../../avr32/lib/ucr3fp\libc.a(lib_a-readr.o)
                                0x4b5 (size before relaxing)

.debug_loc      0x00000000    0x2b691
 *(.debug_loc)
 .debug_loc     0x00000000       0xb5 Library/communication/console.o
 .debug_loc     0x000000b5     0x1188 Library/communication/data_logging.o
 .debug_loc     0x0000123d       0xce Library/communication/data_logging_telemetry.o
 .debug_loc     0x0000130b      0x297 Library/communication/hud_telemetry.o
 .debug_loc     0x000015a2      0x371 Library/communication/mavlink_communication.o
 .debug_loc     0x00001913      0x495 Library/communication/mavlink_message_handler.o
 .debug_loc     0x00001da8     0x13af Library/communication/mavlink_waypoint_handler.o
 .debug_loc     0x00003157      0x6fb Library/communication/remote.o
 .debug_loc     0x00003852      0x3c7 Library/communication/remote_telemetry.o
 .debug_loc     0x00003c19       0xcb Library/communication/state.o
 .debug_loc     0x00003ce4      0x146 Library/communication/state_machine.o
 .debug_loc     0x00003e2a      0x5a7 Library/communication/state_telemetry.o
 .debug_loc     0x000043d1      0x1a9 Library/control/adaptive_parameter.o
 .debug_loc     0x0000457a       0xa5 Library/control/altitude_controller.o
 .debug_loc     0x0000461f      0x115 Library/control/attitude_controller.o
 .debug_loc     0x00004734       0xe9 Library/control/attitude_controller_p2.o
 .debug_loc     0x0000481d      0x126 Library/control/attitude_error_estimator.o
 .debug_loc     0x00004943      0x5c0 Library/control/joystick_parsing.o
 .debug_loc     0x00004f03      0x2eb Library/control/joystick_parsing_telemetry.o
 .debug_loc     0x000051ee      0x302 Library/control/pid_controller.o
 .debug_loc     0x000054f0       0x87 Library/control/servos_mix_quadcopter_cross.o
 .debug_loc     0x00005577       0x87 Library/control/servos_mix_quadcopter_diag.o
 .debug_loc     0x000055fe      0x3aa Library/control/stabilisation_copter.o
 .debug_loc     0x000059a8      0x5f8 Library/control/stabilisation_telemetry.o
 .debug_loc     0x00005fa0      0x2d2 Library/control/vector_field_waypoint.o
 .debug_loc     0x00006272      0x130 Library/control/velocity_controller_copter.o
 .debug_loc     0x000063a2      0x17e Library/hal/analog_monitor_telemetry.o
 .debug_loc     0x00006520      0x14a Library/hal/analog_monitor.o
 .debug_loc     0x0000666a      0x28e Library/hal/bmp085_telemetry.o
 .debug_loc     0x000068f8      0x46f Library/hal/fat_fs/diskio.o
 .debug_loc     0x00006d67     0x59ac Library/hal/fat_fs/ff.o
 .debug_loc     0x0000c713      0x123 Library/hal/fat_fs/option/ccsbcs.o
 .debug_loc     0x0000c836       0x7c Library/hal/fat_fs/option/syscall.o
 .debug_loc     0x0000c8b2      0x98b Library/hal/gps_ublox.o
 .debug_loc     0x0000d23d      0x2b6 Library/hal/gps_ublox_telemetry.o
 .debug_loc     0x0000d4f3       0x74 Library/hal/hmc5883l.o
 .debug_loc     0x0000d567      0x1a7 Library/hal/i2c_driver_int.o
 .debug_loc     0x0000d70e      0x101 Library/hal/lsm330dlc.o
 .debug_loc     0x0000d80f      0x221 Library/hal/piezo_speaker.o
 .debug_loc     0x0000da30      0x17e Library/hal/pwm_servos.o
 .debug_loc     0x0000dbae      0xa49 Library/hal/sd_spi.o
 .debug_loc     0x0000e5f7      0x135 Library/hal/servos.o
 .debug_loc     0x0000e72c      0x173 Library/hal/servos_telemetry.o
 .debug_loc     0x0000e89f      0x10e Library/hal/sonar_i2cxl.o
 .debug_loc     0x0000e9ad      0x283 Library/hal/sonar_telemetry.o
 .debug_loc     0x0000ec30      0x1f4 Library/hal/spektrum_satellite.o
 .debug_loc     0x0000ee24      0x1a7 Library/hal/time_keeper.o
 .debug_loc     0x0000efcb      0x133 Library/hal/usb_int.o
 .debug_loc     0x0000f0fe       0x9f Library/hal/xbee.o
 .debug_loc     0x0000f19d      0x5b0 Library/runtime/scheduler_telemetry.o
 .debug_loc     0x0000f74d       0x64 Library/sensing/ahrs.o
 .debug_loc     0x0000f7b1      0x307 Library/sensing/ahrs_telemetry.o
 .debug_loc     0x0000fab8       0x69 Library/sensing/altitude_estimation.o
 .debug_loc     0x0000fb21      0x3e8 Library/sensing/imu_telemetry.o
 .debug_loc     0x0000ff09      0x1f6 Library/sensing/position_estimation.o
 .debug_loc     0x000100ff      0x3ca Library/sensing/position_estimation_telemetry.o
 .debug_loc     0x000104c9      0x26c Library/sensing/qfilter.o
 .debug_loc     0x00010735      0x3fb Library/sensing/simulation_telemetry.o
 .debug_loc     0x00010b30       0xdb Library/util/linear_algebra.o
 .debug_loc     0x00010c0b      0x8ae Library/util/matrixlib_float.o
 .debug_loc     0x000114b9      0x382 Library/util/quick_trig.o
 .debug_loc     0x0001183b       0x56 src/central_data.o
 .debug_loc     0x00011891      0x12c src/mavlink_telemetry.o
 .debug_loc     0x000119bd      0x1ca src/tasks.o
 .debug_loc     0x00011b87      0x2b3 Library/communication/mavlink_stream.o
 .debug_loc     0x00011e3a      0x8dc Library/communication/onboard_parameters.o
 .debug_loc     0x00012716      0xaf4 Library/control/navigation.o
 .debug_loc     0x0001320a       0xc3 Library/control/stabilisation.o
 .debug_loc     0x000132cd      0x364 Library/hal/adc_int.o
 .debug_loc     0x00013631      0x19c Library/hal/ads1274.o
 .debug_loc     0x000137cd      0x382 Library/hal/bmp085.o
 .debug_loc     0x00013b4f      0x22e Library/hal/dac_dma.o
 .debug_loc     0x00013d7d      0x304 Library/hal/led.o
 .debug_loc     0x00014081      0x68a Library/hal/spi_buffered.o
 .debug_loc     0x0001470b      0x4dc Library/hal/uart_int.o
 .debug_loc     0x00014be7      0x545 Library/runtime/scheduler.o
 .debug_loc     0x0001512c      0x10a Library/sensing/imu.o
 .debug_loc     0x00015236      0x500 Library/sensing/simulation.o
 .debug_loc     0x00015736      0x2ed Library/util/buffer.o
 .debug_loc     0x00015a23      0x123 Library/util/coord_conventions.o
 .debug_loc     0x00015b46       0xd2 Library/util/generator.o
 .debug_loc     0x00015c18      0x976 Library/util/print_util.o
 .debug_loc     0x0001658e      0x3f4 src/asf/avr32/drivers/adcifa/adcifa.o
 .debug_loc     0x00016982      0x3ef src/asf/avr32/drivers/ast/ast.o
 .debug_loc     0x00016d71      0x3e6 src/asf/avr32/drivers/dacifb/dacifb.o
 .debug_loc     0x00017157      0x2b9 src/asf/avr32/drivers/eic/eic.o
 .debug_loc     0x00017410     0x199e src/asf/avr32/drivers/flashc/flashc.o
 .debug_loc     0x00018dae      0x9f0 src/asf/avr32/drivers/gpio/gpio.o
 .debug_loc     0x0001979e      0x121 src/asf/avr32/drivers/intc/intc.o
 .debug_loc     0x000198bf      0x674 src/asf/avr32/drivers/pdca/pdca.o
 .debug_loc     0x00019f33      0x591 src/asf/avr32/drivers/pevc/pevc.o
 .debug_loc     0x0001a4c4      0x240 src/asf/avr32/drivers/pm/pm_uc3c.o
 .debug_loc     0x0001a704      0x346 src/asf/avr32/drivers/pm/power_clocks_lib.o
 .debug_loc     0x0001aa4a      0x860 src/asf/avr32/drivers/pwm/pwm4.o
 .debug_loc     0x0001b2aa      0x9fb src/asf/avr32/drivers/scif/scif_uc3c.o
 .debug_loc     0x0001bca5      0x601 src/asf/avr32/drivers/spi/spi.o
 .debug_loc     0x0001c2a6      0x6d4 src/asf/avr32/drivers/tc/tc.o
 .debug_loc     0x0001c97a      0x5b4 src/asf/avr32/drivers/twim/twim.o
 .debug_loc     0x0001cf2e      0xbad src/asf/avr32/drivers/usart/usart.o
 .debug_loc     0x0001dadb      0x8c1 src/asf/avr32/drivers/usbc/usbc_device.o
 .debug_loc     0x0001e39c       0x69 src/asf/avr32/services/delay/delay.o
 .debug_loc     0x0001e405       0x2b src/asf/common/boards/user_board/init.o
 .debug_loc     0x0001e430      0x176 src/asf/common/services/clock/uc3c/osc.o
 .debug_loc     0x0001e5a6       0xba src/asf/common/services/clock/uc3c/pll.o
 .debug_loc     0x0001e660      0x266 src/asf/common/services/clock/uc3c/sysclk.o
 .debug_loc     0x0001e8c6      0x1e7 src/asf/common/services/spi/uc3_spi/spi_master.o
 .debug_loc     0x0001eaad      0x701 src/asf/common/services/usb/class/cdc/device/udi_cdc.o
 .debug_loc     0x0001f1ae      0x570 src/asf/common/services/usb/udc/udc.o
 .debug_loc     0x0001f71e      0x10f src/asf/common/utils/stdio/read.o
 .debug_loc     0x0001f82d      0x195 src/asf/common/utils/stdio/stdio_usb/stdio_usb.o
 .debug_loc     0x0001f9c2       0xb9 src/asf/common/utils/stdio/write.o
 .debug_loc     0x0001fa7b       0x88 src/boardsupport.o
 .debug_loc     0x0001fb03       0x56 src/main.o
 .debug_loc     0x0001fb59       0xac d:/programmes/atmel/studio/7.0/toolchain/avr32/avr32-gnu-toolchain/bin/../lib/gcc/avr32/4.4.7/../../../../avr32/lib/ucr3fp\libm.a(lib_a-s_cos.o)
 .debug_loc     0x0001fc05      0x214 d:/programmes/atmel/studio/7.0/toolchain/avr32/avr32-gnu-toolchain/bin/../lib/gcc/avr32/4.4.7/../../../../avr32/lib/ucr3fp\libm.a(lib_a-s_floor.o)
 .debug_loc     0x0001fe19       0xac d:/programmes/atmel/studio/7.0/toolchain/avr32/avr32-gnu-toolchain/bin/../lib/gcc/avr32/4.4.7/../../../../avr32/lib/ucr3fp\libm.a(lib_a-s_sin.o)
 .debug_loc     0x0001fec5       0x7c d:/programmes/atmel/studio/7.0/toolchain/avr32/avr32-gnu-toolchain/bin/../lib/gcc/avr32/4.4.7/../../../../avr32/lib/ucr3fp\libm.a(lib_a-w_asin.o)
 .debug_loc     0x0001ff41       0x4f d:/programmes/atmel/studio/7.0/toolchain/avr32/avr32-gnu-toolchain/bin/../lib/gcc/avr32/4.4.7/../../../../avr32/lib/ucr3fp\libm.a(lib_a-w_atan2.o)
 .debug_loc     0x0001ff90       0xa4 d:/programmes/atmel/studio/7.0/toolchain/avr32/avr32-gnu-toolchain/bin/../lib/gcc/avr32/4.4.7/../../../../avr32/lib/ucr3fp\libm.a(lib_a-w_fmod.o)
 .debug_loc     0x00020034       0xa4 d:/programmes/atmel/studio/7.0/toolchain/avr32/avr32-gnu-toolchain/bin/../lib/gcc/avr32/4.4.7/../../../../avr32/lib/ucr3fp\libm.a(lib_a-w_pow.o)
 .debug_loc     0x000200d8       0x7c d:/programmes/atmel/studio/7.0/toolchain/avr32/avr32-gnu-toolchain/bin/../lib/gcc/avr32/4.4.7/../../../../avr32/lib/ucr3fp\libm.a(lib_a-w_sqrt.o)
 .debug_loc     0x00020154       0x49 d:/programmes/atmel/studio/7.0/toolchain/avr32/avr32-gnu-toolchain/bin/../lib/gcc/avr32/4.4.7/../../../../avr32/lib/ucr3fp\libm.a(lib_a-wf_sqrt.o)
 .debug_loc     0x0002019d      0x18f d:/programmes/atmel/studio/7.0/toolchain/avr32/avr32-gnu-toolchain/bin/../lib/gcc/avr32/4.4.7/../../../../avr32/lib/ucr3fp\libm.a(lib_a-e_asin.o)
 .debug_loc     0x0002032c      0x4e5 d:/programmes/atmel/studio/7.0/toolchain/avr32/avr32-gnu-toolchain/bin/../lib/gcc/avr32/4.4.7/../../../../avr32/lib/ucr3fp\libm.a(lib_a-e_atan2.o)
 .debug_loc     0x00020811      0x4ac d:/programmes/atmel/studio/7.0/toolchain/avr32/avr32-gnu-toolchain/bin/../lib/gcc/avr32/4.4.7/../../../../avr32/lib/ucr3fp\libm.a(lib_a-e_fmod.o)
 .debug_loc     0x00020cbd      0x702 d:/programmes/atmel/studio/7.0/toolchain/avr32/avr32-gnu-toolchain/bin/../lib/gcc/avr32/4.4.7/../../../../avr32/lib/ucr3fp\libm.a(lib_a-e_pow.o)
 .debug_loc     0x000213bf      0x317 d:/programmes/atmel/studio/7.0/toolchain/avr32/avr32-gnu-toolchain/bin/../lib/gcc/avr32/4.4.7/../../../../avr32/lib/ucr3fp\libm.a(lib_a-e_rem_pio2.o)
 .debug_loc     0x000216d6      0x2fd d:/programmes/atmel/studio/7.0/toolchain/avr32/avr32-gnu-toolchain/bin/../lib/gcc/avr32/4.4.7/../../../../avr32/lib/ucr3fp\libm.a(lib_a-e_sqrt.o)
 .debug_loc     0x000219d3      0x133 d:/programmes/atmel/studio/7.0/toolchain/avr32/avr32-gnu-toolchain/bin/../lib/gcc/avr32/4.4.7/../../../../avr32/lib/ucr3fp\libm.a(lib_a-ef_sqrt.o)
 .debug_loc     0x00021b06       0xdf d:/programmes/atmel/studio/7.0/toolchain/avr32/avr32-gnu-toolchain/bin/../lib/gcc/avr32/4.4.7/../../../../avr32/lib/ucr3fp\libm.a(lib_a-k_cos.o)
 .debug_loc     0x00021be5      0x627 d:/programmes/atmel/studio/7.0/toolchain/avr32/avr32-gnu-toolchain/bin/../lib/gcc/avr32/4.4.7/../../../../avr32/lib/ucr3fp\libm.a(lib_a-k_rem_pio2.o)
 .debug_loc     0x0002220c       0x89 d:/programmes/atmel/studio/7.0/toolchain/avr32/avr32-gnu-toolchain/bin/../lib/gcc/avr32/4.4.7/../../../../avr32/lib/ucr3fp\libm.a(lib_a-k_sin.o)
 .debug_loc     0x00022295      0x243 d:/programmes/atmel/studio/7.0/toolchain/avr32/avr32-gnu-toolchain/bin/../lib/gcc/avr32/4.4.7/../../../../avr32/lib/ucr3fp\libm.a(lib_a-s_atan.o)
 .debug_loc     0x000224d8       0x18 d:/programmes/atmel/studio/7.0/toolchain/avr32/avr32-gnu-toolchain/bin/../lib/gcc/avr32/4.4.7/../../../../avr32/lib/ucr3fp\libm.a(lib_a-s_fabs.o)
 .debug_loc     0x000224f0       0x18 d:/programmes/atmel/studio/7.0/toolchain/avr32/avr32-gnu-toolchain/bin/../lib/gcc/avr32/4.4.7/../../../../avr32/lib/ucr3fp\libm.a(lib_a-s_finite.o)
 .debug_loc     0x00022508       0x18 d:/programmes/atmel/studio/7.0/toolchain/avr32/avr32-gnu-toolchain/bin/../lib/gcc/avr32/4.4.7/../../../../avr32/lib/ucr3fp\libm.a(lib_a-s_isnand.o)
 .debug_loc     0x00022520       0x13 d:/programmes/atmel/studio/7.0/toolchain/avr32/avr32-gnu-toolchain/bin/../lib/gcc/avr32/4.4.7/../../../../avr32/lib/ucr3fp\libm.a(lib_a-s_matherr.o)
 .debug_loc     0x00022533      0x26b d:/programmes/atmel/studio/7.0/toolchain/avr32/avr32-gnu-toolchain/bin/../lib/gcc/avr32/4.4.7/../../../../avr32/lib/ucr3fp\libm.a(lib_a-s_rint.o)
 .debug_loc     0x0002279e      0x2f0 d:/programmes/atmel/studio/7.0/toolchain/avr32/avr32-gnu-toolchain/bin/../lib/gcc/avr32/4.4.7/../../../../avr32/lib/ucr3fp\libm.a(lib_a-s_scalbn.o)
 .debug_loc     0x00022a8e       0x13 d:/programmes/atmel/studio/7.0/toolchain/avr32/avr32-gnu-toolchain/bin/../lib/gcc/avr32/4.4.7/../../../../avr32/lib/ucr3fp\libm.a(lib_a-sf_isnan.o)
 .debug_loc     0x00022aa1       0x4f d:/programmes/atmel/studio/7.0/toolchain/avr32/avr32-gnu-toolchain/bin/../lib/gcc/avr32/4.4.7/../../../../avr32/lib/ucr3fp\libm.a(lib_a-s_copysign.o)
 .debug_loc     0x00022af0       0x37 d:/programmes/atmel/studio/7.0/toolchain/avr32/avr32-gnu-toolchain/bin/../lib/gcc/avr32/4.4.7/ucr3fp\libgcc.a(_floatdidf.o)
 .debug_loc     0x00022b27      0x844 d:/programmes/atmel/studio/7.0/toolchain/avr32/avr32-gnu-toolchain/bin/../lib/gcc/avr32/4.4.7/ucr3fp\libgcc.a(_divdi3.o)
 .debug_loc     0x0002336b      0x593 d:/programmes/atmel/studio/7.0/toolchain/avr32/avr32-gnu-toolchain/bin/../lib/gcc/avr32/4.4.7/ucr3fp\libgcc.a(_moddi3.o)
 .debug_loc     0x000238fe      0x75d d:/programmes/atmel/studio/7.0/toolchain/avr32/avr32-gnu-toolchain/bin/../lib/gcc/avr32/4.4.7/ucr3fp\libgcc.a(_udivdi3.o)
 .debug_loc     0x0002405b      0x4e6 d:/programmes/atmel/studio/7.0/toolchain/avr32/avr32-gnu-toolchain/bin/../lib/gcc/avr32/4.4.7/ucr3fp\libgcc.a(_umoddi3.o)
 .debug_loc     0x00024541       0x64 d:/programmes/atmel/studio/7.0/toolchain/avr32/avr32-gnu-toolchain/bin/../lib/gcc/avr32/4.4.7/../../../../avr32/lib/ucr3fp\libc.a(lib_a-malloc.o)
 .debug_loc     0x000245a5      0x59a d:/programmes/atmel/studio/7.0/toolchain/avr32/avr32-gnu-toolchain/bin/../lib/gcc/avr32/4.4.7/../../../../avr32/lib/ucr3fp\libc.a(lib_a-mallocr.o)
 .debug_loc     0x00024b3f       0x6f d:/programmes/atmel/studio/7.0/toolchain/avr32/avr32-gnu-toolchain/bin/../lib/gcc/avr32/4.4.7/../../../../avr32/lib/ucr3fp\libc.a(lib_a-rand.o)
 .debug_loc     0x00024bae       0x63 d:/programmes/atmel/studio/7.0/toolchain/avr32/avr32-gnu-toolchain/bin/../lib/gcc/avr32/4.4.7/../../../../avr32/lib/ucr3fp\libc.a(lib_a-sbrkr.o)
 .debug_loc     0x00024c11      0x171 d:/programmes/atmel/studio/7.0/toolchain/avr32/avr32-gnu-toolchain/bin/../lib/gcc/avr32/4.4.7/../../../../avr32/lib/ucr3fp\libc.a(lib_a-snprintf.o)
 .debug_loc     0x00024d82       0x1e d:/programmes/atmel/studio/7.0/toolchain/avr32/avr32-gnu-toolchain/bin/../lib/gcc/avr32/4.4.7/../../../../avr32/lib/ucr3fp\libc.a(lib_a-strlen.o)
 .debug_loc     0x00024da0      0x268 d:/programmes/atmel/studio/7.0/toolchain/avr32/avr32-gnu-toolchain/bin/../lib/gcc/avr32/4.4.7/../../../../avr32/lib/ucr3fp\libc.a(lib_a-syscalls.o)
 .debug_loc     0x00025008     0x2f9f d:/programmes/atmel/studio/7.0/toolchain/avr32/avr32-gnu-toolchain/bin/../lib/gcc/avr32/4.4.7/../../../../avr32/lib/ucr3fp\libc.a(lib_a-vfprintf.o)
 .debug_loc     0x00027fa7       0x5b d:/programmes/atmel/studio/7.0/toolchain/avr32/avr32-gnu-toolchain/bin/../lib/gcc/avr32/4.4.7/../../../../avr32/lib/ucr3fp\libc.a(lib_a-wsetup.o)
 .debug_loc     0x00028002      0xb8a d:/programmes/atmel/studio/7.0/toolchain/avr32/avr32-gnu-toolchain/bin/../lib/gcc/avr32/4.4.7/../../../../avr32/lib/ucr3fp\libc.a(lib_a-dtoa.o)
 .debug_loc     0x00028b8c      0x13f d:/programmes/atmel/studio/7.0/toolchain/avr32/avr32-gnu-toolchain/bin/../lib/gcc/avr32/4.4.7/../../../../avr32/lib/ucr3fp\libc.a(lib_a-fflush.o)
 .debug_loc     0x00028ccb      0x202 d:/programmes/atmel/studio/7.0/toolchain/avr32/avr32-gnu-toolchain/bin/../lib/gcc/avr32/4.4.7/../../../../avr32/lib/ucr3fp\libc.a(lib_a-findfp.o)
 .debug_loc     0x00028ecd      0x32c d:/programmes/atmel/studio/7.0/toolchain/avr32/avr32-gnu-toolchain/bin/../lib/gcc/avr32/4.4.7/../../../../avr32/lib/ucr3fp\libc.a(lib_a-freer.o)
 .debug_loc     0x000291f9      0x28e d:/programmes/atmel/studio/7.0/toolchain/avr32/avr32-gnu-toolchain/bin/../lib/gcc/avr32/4.4.7/../../../../avr32/lib/ucr3fp\libc.a(lib_a-fvwrite.o)
 .debug_loc     0x00029487       0xe7 d:/programmes/atmel/studio/7.0/toolchain/avr32/avr32-gnu-toolchain/bin/../lib/gcc/avr32/4.4.7/../../../../avr32/lib/ucr3fp\libc.a(lib_a-fwalk.o)
 .debug_loc     0x0002956e       0xd1 d:/programmes/atmel/studio/7.0/toolchain/avr32/avr32-gnu-toolchain/bin/../lib/gcc/avr32/4.4.7/../../../../avr32/lib/ucr3fp\libc.a(lib_a-locale.o)
 .debug_loc     0x0002963f       0xc2 d:/programmes/atmel/studio/7.0/toolchain/avr32/avr32-gnu-toolchain/bin/../lib/gcc/avr32/4.4.7/../../../../avr32/lib/ucr3fp\libc.a(lib_a-makebuf.o)
 .debug_loc     0x00029701       0x31 d:/programmes/atmel/studio/7.0/toolchain/avr32/avr32-gnu-toolchain/bin/../lib/gcc/avr32/4.4.7/../../../../avr32/lib/ucr3fp\libc.a(lib_a-memchr.o)
 .debug_loc     0x00029732       0x81 d:/programmes/atmel/studio/7.0/toolchain/avr32/avr32-gnu-toolchain/bin/../lib/gcc/avr32/4.4.7/../../../../avr32/lib/ucr3fp\libc.a(lib_a-memmove.o)
 .debug_loc     0x000297b3     0x122d d:/programmes/atmel/studio/7.0/toolchain/avr32/avr32-gnu-toolchain/bin/../lib/gcc/avr32/4.4.7/../../../../avr32/lib/ucr3fp\libc.a(lib_a-mprec.o)
 .debug_loc     0x0002a9e0      0x56e d:/programmes/atmel/studio/7.0/toolchain/avr32/avr32-gnu-toolchain/bin/../lib/gcc/avr32/4.4.7/../../../../avr32/lib/ucr3fp\libc.a(lib_a-reallocr.o)
 .debug_loc     0x0002af4e      0x10a d:/programmes/atmel/studio/7.0/toolchain/avr32/avr32-gnu-toolchain/bin/../lib/gcc/avr32/4.4.7/../../../../avr32/lib/ucr3fp\libc.a(lib_a-reent.o)
 .debug_loc     0x0002b058       0x43 d:/programmes/atmel/studio/7.0/toolchain/avr32/avr32-gnu-toolchain/bin/../lib/gcc/avr32/4.4.7/../../../../avr32/lib/ucr3fp\libc.a(lib_a-s_isinfd.o)
 .debug_loc     0x0002b09b      0x1ee d:/programmes/atmel/studio/7.0/toolchain/avr32/avr32-gnu-toolchain/bin/../lib/gcc/avr32/4.4.7/../../../../avr32/lib/ucr3fp\libc.a(lib_a-stdio.o)
 .debug_loc     0x0002b289       0x94 d:/programmes/atmel/studio/7.0/toolchain/avr32/avr32-gnu-toolchain/bin/../lib/gcc/avr32/4.4.7/../../../../avr32/lib/ucr3fp\libc.a(lib_a-writer.o)
 .debug_loc     0x0002b31d       0xbd d:/programmes/atmel/studio/7.0/toolchain/avr32/avr32-gnu-toolchain/bin/../lib/gcc/avr32/4.4.7/../../../../avr32/lib/ucr3fp\libc.a(lib_a-callocr.o)
 .debug_loc     0x0002b3da       0x63 d:/programmes/atmel/studio/7.0/toolchain/avr32/avr32-gnu-toolchain/bin/../lib/gcc/avr32/4.4.7/../../../../avr32/lib/ucr3fp\libc.a(lib_a-closer.o)
 .debug_loc     0x0002b43d       0xb6 d:/programmes/atmel/studio/7.0/toolchain/avr32/avr32-gnu-toolchain/bin/../lib/gcc/avr32/4.4.7/../../../../avr32/lib/ucr3fp\libc.a(lib_a-fclose.o)
 .debug_loc     0x0002b4f3       0x76 d:/programmes/atmel/studio/7.0/toolchain/avr32/avr32-gnu-toolchain/bin/../lib/gcc/avr32/4.4.7/../../../../avr32/lib/ucr3fp\libc.a(lib_a-fstatr.o)
 .debug_loc     0x0002b569       0x94 d:/programmes/atmel/studio/7.0/toolchain/avr32/avr32-gnu-toolchain/bin/../lib/gcc/avr32/4.4.7/../../../../avr32/lib/ucr3fp\libc.a(lib_a-lseekr.o)
 .debug_loc     0x0002b5fd       0x94 d:/programmes/atmel/studio/7.0/toolchain/avr32/avr32-gnu-toolchain/bin/../lib/gcc/avr32/4.4.7/../../../../avr32/lib/ucr3fp\libc.a(lib_a-readr.o)

.debug_macinfo
 *(.debug_macinfo)

.debug_weaknames
 *(.debug_weaknames)

.debug_funcnames
 *(.debug_funcnames)

.debug_typenames
 *(.debug_typenames)

.debug_varnames
 *(.debug_varnames)

.stack          0x0000f000     0x1000
                0x0000f000                _stack = .
 *(.stack)
                0x00001000                . = _stack_size
 *fill*         0x0000f000     0x1000 
                0x00010000                _estack = .

.userpage
 *(.userpage .userpage.*)

.factorypage
 *(.factorypage .factorypage.*)

.flashvault_flash_size
 *(.flashvault_flash_size .flashvault_flash_size.*)

.flashvault_ram_size
 *(.flashvault_ram_size .flashvault_ram_size.*)

/DISCARD/
 *(.note.GNU-stack)
OUTPUT(MegaFly2.elf elf32-avr32)

.debug_ranges   0x00000000     0xd400
 .debug_ranges  0x00000000      0x270 Library/communication/data_logging.o
 .debug_ranges  0x00000270      0x140 Library/communication/hud_telemetry.o
 .debug_ranges  0x000003b0       0x98 Library/communication/mavlink_communication.o
 .debug_ranges  0x00000448      0x420 Library/communication/mavlink_message_handler.o
 .debug_ranges  0x00000868     0x1bf8 Library/communication/mavlink_waypoint_handler.o
 .debug_ranges  0x00002460       0x90 Library/communication/remote.o
 .debug_ranges  0x000024f0      0x480 Library/communication/remote_telemetry.o
 .debug_ranges  0x00002970      0x490 Library/communication/state_telemetry.o
 .debug_ranges  0x00002e00       0x18 Library/control/adaptive_parameter.o
 .debug_ranges  0x00002e18       0x70 Library/control/attitude_controller.o
 .debug_ranges  0x00002e88      0x1d0 Library/control/attitude_error_estimator.o
 .debug_ranges  0x00003058      0x468 Library/control/joystick_parsing_telemetry.o
 .debug_ranges  0x000034c0      0x118 Library/control/pid_controller.o
 .debug_ranges  0x000035d8       0x18 Library/control/servos_mix_quadcopter_cross.o
 .debug_ranges  0x000035f0       0x18 Library/control/servos_mix_quadcopter_diag.o
 .debug_ranges  0x00003608      0x370 Library/control/stabilisation_copter.o
 .debug_ranges  0x00003978      0x410 Library/control/stabilisation_telemetry.o
 .debug_ranges  0x00003d88      0x510 Library/control/vector_field_waypoint.o
 .debug_ranges  0x00004298      0x168 Library/control/velocity_controller_copter.o
 .debug_ranges  0x00004400       0xf0 Library/hal/analog_monitor_telemetry.o
 .debug_ranges  0x000044f0       0xa0 Library/hal/analog_monitor.o
 .debug_ranges  0x00004590      0x260 Library/hal/bmp085_telemetry.o
 .debug_ranges  0x000047f0     0x1380 Library/hal/fat_fs/ff.o
 .debug_ranges  0x00005b70      0x600 Library/hal/gps_ublox.o
 .debug_ranges  0x00006170      0x2c8 Library/hal/gps_ublox_telemetry.o
 .debug_ranges  0x00006438       0x30 Library/hal/lsm330dlc.o
 .debug_ranges  0x00006468       0x28 Library/hal/piezo_speaker.o
 .debug_ranges  0x00006490       0x88 Library/hal/pwm_servos.o
 .debug_ranges  0x00006518      0x8b0 Library/hal/sd_spi.o
 .debug_ranges  0x00006dc8      0x238 Library/hal/servos_telemetry.o
 .debug_ranges  0x00007000      0x278 Library/hal/sonar_telemetry.o
 .debug_ranges  0x00007278       0xd8 Library/hal/spektrum_satellite.o
 .debug_ranges  0x00007350      0x590 Library/runtime/scheduler_telemetry.o
 .debug_ranges  0x000078e0      0x278 Library/sensing/ahrs_telemetry.o
 .debug_ranges  0x00007b58      0x490 Library/sensing/imu_telemetry.o
 .debug_ranges  0x00007fe8      0x3e8 Library/sensing/position_estimation.o
 .debug_ranges  0x000083d0      0x3a0 Library/sensing/position_estimation_telemetry.o
 .debug_ranges  0x00008770      0x780 Library/sensing/qfilter.o
 .debug_ranges  0x00008ef0      0x700 Library/sensing/simulation_telemetry.o
 .debug_ranges  0x000095f0       0x30 Library/util/matrixlib_float.o
 .debug_ranges  0x00009620       0xf0 Library/util/quick_trig.o
 .debug_ranges  0x00009710       0x28 src/central_data.o
 .debug_ranges  0x00009738      0x280 Library/communication/mavlink_stream.o
 .debug_ranges  0x000099b8      0x3a0 Library/communication/onboard_parameters.o
 .debug_ranges  0x00009d58      0x8b0 Library/control/navigation.o
 .debug_ranges  0x0000a608       0x18 Library/control/stabilisation.o
 .debug_ranges  0x0000a620      0x270 Library/hal/bmp085.o
 .debug_ranges  0x0000a890      0x120 Library/hal/spi_buffered.o
 .debug_ranges  0x0000a9b0       0xc0 Library/runtime/scheduler.o
 .debug_ranges  0x0000aa70       0x98 Library/sensing/imu.o
 .debug_ranges  0x0000ab08      0xe90 Library/sensing/simulation.o
 .debug_ranges  0x0000b998       0x80 src/asf/avr32/drivers/dacifb/dacifb.o
 .debug_ranges  0x0000ba18       0x50 src/asf/avr32/drivers/flashc/flashc.o
 .debug_ranges  0x0000ba68       0x50 src/asf/avr32/drivers/gpio/gpio.o
 .debug_ranges  0x0000bab8       0x50 src/asf/avr32/drivers/pm/power_clocks_lib.o
 .debug_ranges  0x0000bb08       0x18 src/asf/avr32/drivers/pwm/pwm4.o
 .debug_ranges  0x0000bb20      0x108 src/asf/avr32/drivers/scif/scif_uc3c.o
 .debug_ranges  0x0000bc28       0x60 src/asf/avr32/drivers/usart/usart.o
 .debug_ranges  0x0000bc88      0x2c8 src/asf/avr32/drivers/usbc/usbc_device.o
 .debug_ranges  0x0000bf50       0x90 src/asf/common/services/clock/uc3c/sysclk.o
 .debug_ranges  0x0000bfe0      0x150 src/asf/common/services/spi/uc3_spi/spi_master.o
 .debug_ranges  0x0000c130       0xd0 src/asf/common/services/usb/class/cdc/device/udi_cdc.o
 .debug_ranges  0x0000c200      0x390 src/asf/common/services/usb/udc/udc.o
 .debug_ranges  0x0000c590       0x18 src/asf/common/utils/stdio/read.o
 .debug_ranges  0x0000c5a8       0x18 d:/programmes/atmel/studio/7.0/toolchain/avr32/avr32-gnu-toolchain/bin/../lib/gcc/avr32/4.4.7/../../../../avr32/lib/ucr3fp\libm.a(lib_a-s_cos.o)
 .debug_ranges  0x0000c5c0       0x18 d:/programmes/atmel/studio/7.0/toolchain/avr32/avr32-gnu-toolchain/bin/../lib/gcc/avr32/4.4.7/../../../../avr32/lib/ucr3fp\libm.a(lib_a-s_floor.o)
 .debug_ranges  0x0000c5d8       0x18 d:/programmes/atmel/studio/7.0/toolchain/avr32/avr32-gnu-toolchain/bin/../lib/gcc/avr32/4.4.7/../../../../avr32/lib/ucr3fp\libm.a(lib_a-s_sin.o)
 .debug_ranges  0x0000c5f0       0x18 d:/programmes/atmel/studio/7.0/toolchain/avr32/avr32-gnu-toolchain/bin/../lib/gcc/avr32/4.4.7/../../../../avr32/lib/ucr3fp\libm.a(lib_a-w_asin.o)
 .debug_ranges  0x0000c608       0x18 d:/programmes/atmel/studio/7.0/toolchain/avr32/avr32-gnu-toolchain/bin/../lib/gcc/avr32/4.4.7/../../../../avr32/lib/ucr3fp\libm.a(lib_a-w_atan2.o)
 .debug_ranges  0x0000c620       0x18 d:/programmes/atmel/studio/7.0/toolchain/avr32/avr32-gnu-toolchain/bin/../lib/gcc/avr32/4.4.7/../../../../avr32/lib/ucr3fp\libm.a(lib_a-w_fmod.o)
 .debug_ranges  0x0000c638       0x18 d:/programmes/atmel/studio/7.0/toolchain/avr32/avr32-gnu-toolchain/bin/../lib/gcc/avr32/4.4.7/../../../../avr32/lib/ucr3fp\libm.a(lib_a-w_pow.o)
 .debug_ranges  0x0000c650       0x18 d:/programmes/atmel/studio/7.0/toolchain/avr32/avr32-gnu-toolchain/bin/../lib/gcc/avr32/4.4.7/../../../../avr32/lib/ucr3fp\libm.a(lib_a-w_sqrt.o)
 .debug_ranges  0x0000c668       0x18 d:/programmes/atmel/studio/7.0/toolchain/avr32/avr32-gnu-toolchain/bin/../lib/gcc/avr32/4.4.7/../../../../avr32/lib/ucr3fp\libm.a(lib_a-wf_sqrt.o)
 .debug_ranges  0x0000c680       0x30 d:/programmes/atmel/studio/7.0/toolchain/avr32/avr32-gnu-toolchain/bin/../lib/gcc/avr32/4.4.7/../../../../avr32/lib/ucr3fp\libm.a(lib_a-e_asin.o)
 .debug_ranges  0x0000c6b0       0x48 d:/programmes/atmel/studio/7.0/toolchain/avr32/avr32-gnu-toolchain/bin/../lib/gcc/avr32/4.4.7/../../../../avr32/lib/ucr3fp\libm.a(lib_a-e_atan2.o)
 .debug_ranges  0x0000c6f8       0x68 d:/programmes/atmel/studio/7.0/toolchain/avr32/avr32-gnu-toolchain/bin/../lib/gcc/avr32/4.4.7/../../../../avr32/lib/ucr3fp\libm.a(lib_a-e_fmod.o)
 .debug_ranges  0x0000c760      0x158 d:/programmes/atmel/studio/7.0/toolchain/avr32/avr32-gnu-toolchain/bin/../lib/gcc/avr32/4.4.7/../../../../avr32/lib/ucr3fp\libm.a(lib_a-e_pow.o)
 .debug_ranges  0x0000c8b8       0x30 d:/programmes/atmel/studio/7.0/toolchain/avr32/avr32-gnu-toolchain/bin/../lib/gcc/avr32/4.4.7/../../../../avr32/lib/ucr3fp\libm.a(lib_a-e_rem_pio2.o)
 .debug_ranges  0x0000c8e8       0x38 d:/programmes/atmel/studio/7.0/toolchain/avr32/avr32-gnu-toolchain/bin/../lib/gcc/avr32/4.4.7/../../../../avr32/lib/ucr3fp\libm.a(lib_a-e_sqrt.o)
 .debug_ranges  0x0000c920       0x18 d:/programmes/atmel/studio/7.0/toolchain/avr32/avr32-gnu-toolchain/bin/../lib/gcc/avr32/4.4.7/../../../../avr32/lib/ucr3fp\libm.a(lib_a-ef_sqrt.o)
 .debug_ranges  0x0000c938       0x18 d:/programmes/atmel/studio/7.0/toolchain/avr32/avr32-gnu-toolchain/bin/../lib/gcc/avr32/4.4.7/../../../../avr32/lib/ucr3fp\libm.a(lib_a-k_cos.o)
 .debug_ranges  0x0000c950       0x18 d:/programmes/atmel/studio/7.0/toolchain/avr32/avr32-gnu-toolchain/bin/../lib/gcc/avr32/4.4.7/../../../../avr32/lib/ucr3fp\libm.a(lib_a-k_rem_pio2.o)
 .debug_ranges  0x0000c968       0x18 d:/programmes/atmel/studio/7.0/toolchain/avr32/avr32-gnu-toolchain/bin/../lib/gcc/avr32/4.4.7/../../../../avr32/lib/ucr3fp\libm.a(lib_a-k_sin.o)
 .debug_ranges  0x0000c980       0x18 d:/programmes/atmel/studio/7.0/toolchain/avr32/avr32-gnu-toolchain/bin/../lib/gcc/avr32/4.4.7/../../../../avr32/lib/ucr3fp\libm.a(lib_a-s_atan.o)
 .debug_ranges  0x0000c998       0x18 d:/programmes/atmel/studio/7.0/toolchain/avr32/avr32-gnu-toolchain/bin/../lib/gcc/avr32/4.4.7/../../../../avr32/lib/ucr3fp\libm.a(lib_a-s_fabs.o)
 .debug_ranges  0x0000c9b0       0x18 d:/programmes/atmel/studio/7.0/toolchain/avr32/avr32-gnu-toolchain/bin/../lib/gcc/avr32/4.4.7/../../../../avr32/lib/ucr3fp\libm.a(lib_a-s_finite.o)
 .debug_ranges  0x0000c9c8       0x18 d:/programmes/atmel/studio/7.0/toolchain/avr32/avr32-gnu-toolchain/bin/../lib/gcc/avr32/4.4.7/../../../../avr32/lib/ucr3fp\libm.a(lib_a-s_isnand.o)
 .debug_ranges  0x0000c9e0       0x18 d:/programmes/atmel/studio/7.0/toolchain/avr32/avr32-gnu-toolchain/bin/../lib/gcc/avr32/4.4.7/../../../../avr32/lib/ucr3fp\libm.a(lib_a-s_matherr.o)
 .debug_ranges  0x0000c9f8       0x18 d:/programmes/atmel/studio/7.0/toolchain/avr32/avr32-gnu-toolchain/bin/../lib/gcc/avr32/4.4.7/../../../../avr32/lib/ucr3fp\libm.a(lib_a-s_nan.o)
 .debug_ranges  0x0000ca10       0x18 d:/programmes/atmel/studio/7.0/toolchain/avr32/avr32-gnu-toolchain/bin/../lib/gcc/avr32/4.4.7/../../../../avr32/lib/ucr3fp\libm.a(lib_a-s_rint.o)
 .debug_ranges  0x0000ca28       0x30 d:/programmes/atmel/studio/7.0/toolchain/avr32/avr32-gnu-toolchain/bin/../lib/gcc/avr32/4.4.7/../../../../avr32/lib/ucr3fp\libm.a(lib_a-s_scalbn.o)
 .debug_ranges  0x0000ca58       0x18 d:/programmes/atmel/studio/7.0/toolchain/avr32/avr32-gnu-toolchain/bin/../lib/gcc/avr32/4.4.7/../../../../avr32/lib/ucr3fp\libm.a(lib_a-sf_isnan.o)
 .debug_ranges  0x0000ca70       0x18 d:/programmes/atmel/studio/7.0/toolchain/avr32/avr32-gnu-toolchain/bin/../lib/gcc/avr32/4.4.7/../../../../avr32/lib/ucr3fp\libm.a(lib_a-s_copysign.o)
 .debug_ranges  0x0000ca88       0x90 d:/programmes/atmel/studio/7.0/toolchain/avr32/avr32-gnu-toolchain/bin/../lib/gcc/avr32/4.4.7/ucr3fp\libgcc.a(_divdi3.o)
 .debug_ranges  0x0000cb18       0x68 d:/programmes/atmel/studio/7.0/toolchain/avr32/avr32-gnu-toolchain/bin/../lib/gcc/avr32/4.4.7/ucr3fp\libgcc.a(_moddi3.o)
 .debug_ranges  0x0000cb80       0x78 d:/programmes/atmel/studio/7.0/toolchain/avr32/avr32-gnu-toolchain/bin/../lib/gcc/avr32/4.4.7/ucr3fp\libgcc.a(_udivdi3.o)
 .debug_ranges  0x0000cbf8       0x38 d:/programmes/atmel/studio/7.0/toolchain/avr32/avr32-gnu-toolchain/bin/../lib/gcc/avr32/4.4.7/ucr3fp\libgcc.a(_umoddi3.o)
 .debug_ranges  0x0000cc30       0x18 d:/programmes/atmel/studio/7.0/toolchain/avr32/avr32-gnu-toolchain/bin/../lib/gcc/avr32/4.4.7/../../../../avr32/lib/ucr3fp\libc.a(lib_a-errno.o)
 .debug_ranges  0x0000cc48       0x20 d:/programmes/atmel/studio/7.0/toolchain/avr32/avr32-gnu-toolchain/bin/../lib/gcc/avr32/4.4.7/../../../../avr32/lib/ucr3fp\libc.a(lib_a-malloc.o)
 .debug_ranges  0x0000cc68       0x18 d:/programmes/atmel/studio/7.0/toolchain/avr32/avr32-gnu-toolchain/bin/../lib/gcc/avr32/4.4.7/../../../../avr32/lib/ucr3fp\libc.a(lib_a-mallocr.o)
 .debug_ranges  0x0000cc80       0x18 d:/programmes/atmel/studio/7.0/toolchain/avr32/avr32-gnu-toolchain/bin/../lib/gcc/avr32/4.4.7/../../../../avr32/lib/ucr3fp\libc.a(lib_a-memset.o)
 .debug_ranges  0x0000cc98       0x20 d:/programmes/atmel/studio/7.0/toolchain/avr32/avr32-gnu-toolchain/bin/../lib/gcc/avr32/4.4.7/../../../../avr32/lib/ucr3fp\libc.a(lib_a-mlock.o)
 .debug_ranges  0x0000ccb8       0x68 d:/programmes/atmel/studio/7.0/toolchain/avr32/avr32-gnu-toolchain/bin/../lib/gcc/avr32/4.4.7/../../../../avr32/lib/ucr3fp\libc.a(lib_a-rand.o)
 .debug_ranges  0x0000cd20       0x18 d:/programmes/atmel/studio/7.0/toolchain/avr32/avr32-gnu-toolchain/bin/../lib/gcc/avr32/4.4.7/../../../../avr32/lib/ucr3fp\libc.a(lib_a-sbrkr.o)
 .debug_ranges  0x0000cd38       0x20 d:/programmes/atmel/studio/7.0/toolchain/avr32/avr32-gnu-toolchain/bin/../lib/gcc/avr32/4.4.7/../../../../avr32/lib/ucr3fp\libc.a(lib_a-snprintf.o)
 .debug_ranges  0x0000cd58       0x18 d:/programmes/atmel/studio/7.0/toolchain/avr32/avr32-gnu-toolchain/bin/../lib/gcc/avr32/4.4.7/../../../../avr32/lib/ucr3fp\libc.a(lib_a-strcpy.o)
 .debug_ranges  0x0000cd70       0x18 d:/programmes/atmel/studio/7.0/toolchain/avr32/avr32-gnu-toolchain/bin/../lib/gcc/avr32/4.4.7/../../../../avr32/lib/ucr3fp\libc.a(lib_a-strlen.o)
 .debug_ranges  0x0000cd88       0xf0 d:/programmes/atmel/studio/7.0/toolchain/avr32/avr32-gnu-toolchain/bin/../lib/gcc/avr32/4.4.7/../../../../avr32/lib/ucr3fp\libc.a(lib_a-syscalls.o)
 .debug_ranges  0x0000ce78       0xa0 d:/programmes/atmel/studio/7.0/toolchain/avr32/avr32-gnu-toolchain/bin/../lib/gcc/avr32/4.4.7/../../../../avr32/lib/ucr3fp\libc.a(lib_a-vfprintf.o)
 .debug_ranges  0x0000cf18       0x18 d:/programmes/atmel/studio/7.0/toolchain/avr32/avr32-gnu-toolchain/bin/../lib/gcc/avr32/4.4.7/../../../../avr32/lib/ucr3fp\libc.a(lib_a-wsetup.o)
 .debug_ranges  0x0000cf30       0x38 d:/programmes/atmel/studio/7.0/toolchain/avr32/avr32-gnu-toolchain/bin/../lib/gcc/avr32/4.4.7/../../../../avr32/lib/ucr3fp\libc.a(lib_a-dtoa.o)
 .debug_ranges  0x0000cf68       0x20 d:/programmes/atmel/studio/7.0/toolchain/avr32/avr32-gnu-toolchain/bin/../lib/gcc/avr32/4.4.7/../../../../avr32/lib/ucr3fp\libc.a(lib_a-fflush.o)
 .debug_ranges  0x0000cf88       0xb0 d:/programmes/atmel/studio/7.0/toolchain/avr32/avr32-gnu-toolchain/bin/../lib/gcc/avr32/4.4.7/../../../../avr32/lib/ucr3fp\libc.a(lib_a-findfp.o)
 .debug_ranges  0x0000d038       0x20 d:/programmes/atmel/studio/7.0/toolchain/avr32/avr32-gnu-toolchain/bin/../lib/gcc/avr32/4.4.7/../../../../avr32/lib/ucr3fp\libc.a(lib_a-freer.o)
 .debug_ranges  0x0000d058       0x18 d:/programmes/atmel/studio/7.0/toolchain/avr32/avr32-gnu-toolchain/bin/../lib/gcc/avr32/4.4.7/../../../../avr32/lib/ucr3fp\libc.a(lib_a-fvwrite.o)
 .debug_ranges  0x0000d070       0xa0 d:/programmes/atmel/studio/7.0/toolchain/avr32/avr32-gnu-toolchain/bin/../lib/gcc/avr32/4.4.7/../../../../avr32/lib/ucr3fp\libc.a(lib_a-fwalk.o)
 .debug_ranges  0x0000d110       0x38 d:/programmes/atmel/studio/7.0/toolchain/avr32/avr32-gnu-toolchain/bin/../lib/gcc/avr32/4.4.7/../../../../avr32/lib/ucr3fp\libc.a(lib_a-locale.o)
 .debug_ranges  0x0000d148       0x18 d:/programmes/atmel/studio/7.0/toolchain/avr32/avr32-gnu-toolchain/bin/../lib/gcc/avr32/4.4.7/../../../../avr32/lib/ucr3fp\libc.a(lib_a-makebuf.o)
 .debug_ranges  0x0000d160       0x18 d:/programmes/atmel/studio/7.0/toolchain/avr32/avr32-gnu-toolchain/bin/../lib/gcc/avr32/4.4.7/../../../../avr32/lib/ucr3fp\libc.a(lib_a-memchr.o)
 .debug_ranges  0x0000d178       0x18 d:/programmes/atmel/studio/7.0/toolchain/avr32/avr32-gnu-toolchain/bin/../lib/gcc/avr32/4.4.7/../../../../avr32/lib/ucr3fp\libc.a(lib_a-memmove.o)
 .debug_ranges  0x0000d190      0x120 d:/programmes/atmel/studio/7.0/toolchain/avr32/avr32-gnu-toolchain/bin/../lib/gcc/avr32/4.4.7/../../../../avr32/lib/ucr3fp\libc.a(lib_a-mprec.o)
 .debug_ranges  0x0000d2b0       0x30 d:/programmes/atmel/studio/7.0/toolchain/avr32/avr32-gnu-toolchain/bin/../lib/gcc/avr32/4.4.7/../../../../avr32/lib/ucr3fp\libc.a(lib_a-reallocr.o)
 .debug_ranges  0x0000d2e0       0x28 d:/programmes/atmel/studio/7.0/toolchain/avr32/avr32-gnu-toolchain/bin/../lib/gcc/avr32/4.4.7/../../../../avr32/lib/ucr3fp\libc.a(lib_a-reent.o)
 .debug_ranges  0x0000d308       0x18 d:/programmes/atmel/studio/7.0/toolchain/avr32/avr32-gnu-toolchain/bin/../lib/gcc/avr32/4.4.7/../../../../avr32/lib/ucr3fp\libc.a(lib_a-s_isinfd.o)
 .debug_ranges  0x0000d320       0x30 d:/programmes/atmel/studio/7.0/toolchain/avr32/avr32-gnu-toolchain/bin/../lib/gcc/avr32/4.4.7/../../../../avr32/lib/ucr3fp\libc.a(lib_a-stdio.o)
 .debug_ranges  0x0000d350       0x18 d:/programmes/atmel/studio/7.0/toolchain/avr32/avr32-gnu-toolchain/bin/../lib/gcc/avr32/4.4.7/../../../../avr32/lib/ucr3fp\libc.a(lib_a-writer.o)
 .debug_ranges  0x0000d368       0x18 d:/programmes/atmel/studio/7.0/toolchain/avr32/avr32-gnu-toolchain/bin/../lib/gcc/avr32/4.4.7/../../../../avr32/lib/ucr3fp\libc.a(lib_a-callocr.o)
 .debug_ranges  0x0000d380       0x18 d:/programmes/atmel/studio/7.0/toolchain/avr32/avr32-gnu-toolchain/bin/../lib/gcc/avr32/4.4.7/../../../../avr32/lib/ucr3fp\libc.a(lib_a-closer.o)
 .debug_ranges  0x0000d398       0x20 d:/programmes/atmel/studio/7.0/toolchain/avr32/avr32-gnu-toolchain/bin/../lib/gcc/avr32/4.4.7/../../../../avr32/lib/ucr3fp\libc.a(lib_a-fclose.o)
 .debug_ranges  0x0000d3b8       0x18 d:/programmes/atmel/studio/7.0/toolchain/avr32/avr32-gnu-toolchain/bin/../lib/gcc/avr32/4.4.7/../../../../avr32/lib/ucr3fp\libc.a(lib_a-fstatr.o)
 .debug_ranges  0x0000d3d0       0x18 d:/programmes/atmel/studio/7.0/toolchain/avr32/avr32-gnu-toolchain/bin/../lib/gcc/avr32/4.4.7/../../../../avr32/lib/ucr3fp\libc.a(lib_a-lseekr.o)
 .debug_ranges  0x0000d3e8       0x18 d:/programmes/atmel/studio/7.0/toolchain/avr32/avr32-gnu-toolchain/bin/../lib/gcc/avr32/4.4.7/../../../../avr32/lib/ucr3fp\libc.a(lib_a-readr.o)
